Archive member included to satisfy reference by file (symbol)

/home/andrea/Desktop/Star-Os/glibc-2.38/build/libc_pic.a(check_fds.os)
                              /home/andrea/Desktop/Star-Os/glibc-2.38/build/elf/dl-allobjs.os (__libc_check_standard_fds)
/home/andrea/Desktop/Star-Os/glibc-2.38/build/libc_pic.a(errno.os)
                              /home/andrea/Desktop/Star-Os/glibc-2.38/build/libc_pic.a(check_fds.os) (__libc_errno)
/home/andrea/Desktop/Star-Os/glibc-2.38/build/libc_pic.a(setjmp.os)
                              /home/andrea/Desktop/Star-Os/glibc-2.38/build/elf/dl-allobjs.os (__sigsetjmp)
/home/andrea/Desktop/Star-Os/glibc-2.38/build/libc_pic.a(__longjmp.os)
                              /home/andrea/Desktop/Star-Os/glibc-2.38/build/elf/dl-allobjs.os (__longjmp)
/home/andrea/Desktop/Star-Os/glibc-2.38/build/libc_pic.a(lowlevellock.os)
                              /home/andrea/Desktop/Star-Os/glibc-2.38/build/elf/dl-allobjs.os (__lll_lock_wait_private)
/home/andrea/Desktop/Star-Os/glibc-2.38/build/libc_pic.a(scratch_buffer_set_array_size.os)
                              /home/andrea/Desktop/Star-Os/glibc-2.38/build/elf/dl-allobjs.os (__libc_scratch_buffer_set_array_size)
/home/andrea/Desktop/Star-Os/glibc-2.38/build/libc_pic.a(memchr.os)
                              /home/andrea/Desktop/Star-Os/glibc-2.38/build/elf/dl-allobjs.os (memchr)
/home/andrea/Desktop/Star-Os/glibc-2.38/build/libc_pic.a(memcmp.os)
                              /home/andrea/Desktop/Star-Os/glibc-2.38/build/elf/dl-allobjs.os (memcmp)
/home/andrea/Desktop/Star-Os/glibc-2.38/build/libc_pic.a(memcpy.os)
                              /home/andrea/Desktop/Star-Os/glibc-2.38/build/libc_pic.a(check_fds.os) (__GI_memcpy)
/home/andrea/Desktop/Star-Os/glibc-2.38/build/libc_pic.a(memmove.os)
                              /home/andrea/Desktop/Star-Os/glibc-2.38/build/elf/dl-allobjs.os (memmove)
/home/andrea/Desktop/Star-Os/glibc-2.38/build/libc_pic.a(mempcpy.os)
                              /home/andrea/Desktop/Star-Os/glibc-2.38/build/elf/dl-allobjs.os (__mempcpy)
/home/andrea/Desktop/Star-Os/glibc-2.38/build/libc_pic.a(memset.os)
                              /home/andrea/Desktop/Star-Os/glibc-2.38/build/elf/dl-allobjs.os (memset)
/home/andrea/Desktop/Star-Os/glibc-2.38/build/libc_pic.a(stpcpy.os)
                              /home/andrea/Desktop/Star-Os/glibc-2.38/build/elf/dl-allobjs.os (__stpcpy)
/home/andrea/Desktop/Star-Os/glibc-2.38/build/libc_pic.a(strchr.os)
                              /home/andrea/Desktop/Star-Os/glibc-2.38/build/elf/dl-allobjs.os (strchr)
/home/andrea/Desktop/Star-Os/glibc-2.38/build/libc_pic.a(strcmp.os)
                              /home/andrea/Desktop/Star-Os/glibc-2.38/build/elf/dl-allobjs.os (strcmp)
/home/andrea/Desktop/Star-Os/glibc-2.38/build/libc_pic.a(strcspn.os)
                              /home/andrea/Desktop/Star-Os/glibc-2.38/build/elf/dl-allobjs.os (strcspn)
/home/andrea/Desktop/Star-Os/glibc-2.38/build/libc_pic.a(strdup.os)
                              /home/andrea/Desktop/Star-Os/glibc-2.38/build/elf/dl-allobjs.os (__strdup)
/home/andrea/Desktop/Star-Os/glibc-2.38/build/libc_pic.a(strerrorname_np.os)
                              /home/andrea/Desktop/Star-Os/glibc-2.38/build/elf/dl-allobjs.os (strerrorname_np)
/home/andrea/Desktop/Star-Os/glibc-2.38/build/libc_pic.a(strlen.os)
                              /home/andrea/Desktop/Star-Os/glibc-2.38/build/elf/dl-allobjs.os (strlen)
/home/andrea/Desktop/Star-Os/glibc-2.38/build/libc_pic.a(strncmp.os)
                              /home/andrea/Desktop/Star-Os/glibc-2.38/build/elf/dl-allobjs.os (strncmp)
/home/andrea/Desktop/Star-Os/glibc-2.38/build/libc_pic.a(strnlen.os)
                              /home/andrea/Desktop/Star-Os/glibc-2.38/build/elf/dl-allobjs.os (strnlen)
/home/andrea/Desktop/Star-Os/glibc-2.38/build/libc_pic.a(memchr-avx2.os)
                              /home/andrea/Desktop/Star-Os/glibc-2.38/build/libc_pic.a(memchr.os) (__memchr_avx2)
/home/andrea/Desktop/Star-Os/glibc-2.38/build/libc_pic.a(memchr-avx2-rtm.os)
                              /home/andrea/Desktop/Star-Os/glibc-2.38/build/libc_pic.a(memchr.os) (__memchr_avx2_rtm)
/home/andrea/Desktop/Star-Os/glibc-2.38/build/libc_pic.a(memchr-evex.os)
                              /home/andrea/Desktop/Star-Os/glibc-2.38/build/libc_pic.a(memchr.os) (__memchr_evex)
/home/andrea/Desktop/Star-Os/glibc-2.38/build/libc_pic.a(memchr-evex-rtm.os)
                              /home/andrea/Desktop/Star-Os/glibc-2.38/build/libc_pic.a(memchr.os) (__memchr_evex_rtm)
/home/andrea/Desktop/Star-Os/glibc-2.38/build/libc_pic.a(memchr-sse2.os)
                              /home/andrea/Desktop/Star-Os/glibc-2.38/build/libc_pic.a(memchr.os) (__memchr_sse2)
/home/andrea/Desktop/Star-Os/glibc-2.38/build/libc_pic.a(memcmp-avx2-movbe.os)
                              /home/andrea/Desktop/Star-Os/glibc-2.38/build/libc_pic.a(memcmp.os) (__memcmp_avx2_movbe)
/home/andrea/Desktop/Star-Os/glibc-2.38/build/libc_pic.a(memcmp-avx2-movbe-rtm.os)
                              /home/andrea/Desktop/Star-Os/glibc-2.38/build/libc_pic.a(memcmp.os) (__memcmp_avx2_movbe_rtm)
/home/andrea/Desktop/Star-Os/glibc-2.38/build/libc_pic.a(memcmp-evex-movbe.os)
                              /home/andrea/Desktop/Star-Os/glibc-2.38/build/libc_pic.a(memcmp.os) (__memcmp_evex_movbe)
/home/andrea/Desktop/Star-Os/glibc-2.38/build/libc_pic.a(memcmp-sse2.os)
                              /home/andrea/Desktop/Star-Os/glibc-2.38/build/libc_pic.a(memcmp.os) (__memcmp_sse2)
/home/andrea/Desktop/Star-Os/glibc-2.38/build/libc_pic.a(memmove-avx-unaligned-erms.os)
                              /home/andrea/Desktop/Star-Os/glibc-2.38/build/libc_pic.a(mempcpy.os) (__mempcpy_avx_unaligned)
/home/andrea/Desktop/Star-Os/glibc-2.38/build/libc_pic.a(memmove-avx-unaligned-erms-rtm.os)
                              /home/andrea/Desktop/Star-Os/glibc-2.38/build/libc_pic.a(mempcpy.os) (__mempcpy_avx_unaligned_rtm)
/home/andrea/Desktop/Star-Os/glibc-2.38/build/libc_pic.a(memmove-avx512-no-vzeroupper.os)
                              /home/andrea/Desktop/Star-Os/glibc-2.38/build/libc_pic.a(mempcpy.os) (__mempcpy_avx512_no_vzeroupper)
/home/andrea/Desktop/Star-Os/glibc-2.38/build/libc_pic.a(memmove-avx512-unaligned-erms.os)
                              /home/andrea/Desktop/Star-Os/glibc-2.38/build/libc_pic.a(mempcpy.os) (__mempcpy_avx512_unaligned)
/home/andrea/Desktop/Star-Os/glibc-2.38/build/libc_pic.a(memmove-erms.os)
                              /home/andrea/Desktop/Star-Os/glibc-2.38/build/libc_pic.a(mempcpy.os) (__mempcpy_erms)
/home/andrea/Desktop/Star-Os/glibc-2.38/build/libc_pic.a(memmove-evex-unaligned-erms.os)
                              /home/andrea/Desktop/Star-Os/glibc-2.38/build/libc_pic.a(mempcpy.os) (__mempcpy_evex_unaligned)
/home/andrea/Desktop/Star-Os/glibc-2.38/build/libc_pic.a(memmove-sse2-unaligned-erms.os)
                              /home/andrea/Desktop/Star-Os/glibc-2.38/build/libc_pic.a(mempcpy.os) (__mempcpy_sse2_unaligned)
/home/andrea/Desktop/Star-Os/glibc-2.38/build/libc_pic.a(memmove-ssse3.os)
                              /home/andrea/Desktop/Star-Os/glibc-2.38/build/libc_pic.a(mempcpy.os) (__mempcpy_ssse3)
/home/andrea/Desktop/Star-Os/glibc-2.38/build/libc_pic.a(memset-avx2-unaligned-erms.os)
                              /home/andrea/Desktop/Star-Os/glibc-2.38/build/libc_pic.a(memset.os) (__memset_avx2_unaligned)
/home/andrea/Desktop/Star-Os/glibc-2.38/build/libc_pic.a(memset-avx2-unaligned-erms-rtm.os)
                              /home/andrea/Desktop/Star-Os/glibc-2.38/build/libc_pic.a(memset.os) (__memset_avx2_unaligned_rtm)
/home/andrea/Desktop/Star-Os/glibc-2.38/build/libc_pic.a(memset-avx512-no-vzeroupper.os)
                              /home/andrea/Desktop/Star-Os/glibc-2.38/build/libc_pic.a(memset.os) (__memset_avx512_no_vzeroupper)
/home/andrea/Desktop/Star-Os/glibc-2.38/build/libc_pic.a(memset-avx512-unaligned-erms.os)
                              /home/andrea/Desktop/Star-Os/glibc-2.38/build/libc_pic.a(memset.os) (__memset_avx512_unaligned)
/home/andrea/Desktop/Star-Os/glibc-2.38/build/libc_pic.a(memset-erms.os)
                              /home/andrea/Desktop/Star-Os/glibc-2.38/build/libc_pic.a(memset.os) (__memset_erms)
/home/andrea/Desktop/Star-Os/glibc-2.38/build/libc_pic.a(memset-evex-unaligned-erms.os)
                              /home/andrea/Desktop/Star-Os/glibc-2.38/build/libc_pic.a(memset.os) (__memset_evex_unaligned)
/home/andrea/Desktop/Star-Os/glibc-2.38/build/libc_pic.a(memset-sse2-unaligned-erms.os)
                              /home/andrea/Desktop/Star-Os/glibc-2.38/build/libc_pic.a(memset.os) (__memset_sse2_unaligned)
/home/andrea/Desktop/Star-Os/glibc-2.38/build/libc_pic.a(stpcpy-avx2.os)
                              /home/andrea/Desktop/Star-Os/glibc-2.38/build/libc_pic.a(stpcpy.os) (__stpcpy_avx2)
/home/andrea/Desktop/Star-Os/glibc-2.38/build/libc_pic.a(stpcpy-avx2-rtm.os)
                              /home/andrea/Desktop/Star-Os/glibc-2.38/build/libc_pic.a(stpcpy.os) (__stpcpy_avx2_rtm)
/home/andrea/Desktop/Star-Os/glibc-2.38/build/libc_pic.a(stpcpy-evex.os)
                              /home/andrea/Desktop/Star-Os/glibc-2.38/build/libc_pic.a(stpcpy.os) (__stpcpy_evex)
/home/andrea/Desktop/Star-Os/glibc-2.38/build/libc_pic.a(stpcpy-sse2.os)
                              /home/andrea/Desktop/Star-Os/glibc-2.38/build/libc_pic.a(stpcpy.os) (__stpcpy_sse2)
/home/andrea/Desktop/Star-Os/glibc-2.38/build/libc_pic.a(stpcpy-sse2-unaligned.os)
                              /home/andrea/Desktop/Star-Os/glibc-2.38/build/libc_pic.a(stpcpy.os) (__stpcpy_sse2_unaligned)
/home/andrea/Desktop/Star-Os/glibc-2.38/build/libc_pic.a(strchr-avx2.os)
                              /home/andrea/Desktop/Star-Os/glibc-2.38/build/libc_pic.a(strchr.os) (__strchr_avx2)
/home/andrea/Desktop/Star-Os/glibc-2.38/build/libc_pic.a(strchr-avx2-rtm.os)
                              /home/andrea/Desktop/Star-Os/glibc-2.38/build/libc_pic.a(strchr.os) (__strchr_avx2_rtm)
/home/andrea/Desktop/Star-Os/glibc-2.38/build/libc_pic.a(strchr-evex.os)
                              /home/andrea/Desktop/Star-Os/glibc-2.38/build/libc_pic.a(strchr.os) (__strchr_evex)
/home/andrea/Desktop/Star-Os/glibc-2.38/build/libc_pic.a(strchr-sse2.os)
                              /home/andrea/Desktop/Star-Os/glibc-2.38/build/libc_pic.a(strchr.os) (__strchr_sse2)
/home/andrea/Desktop/Star-Os/glibc-2.38/build/libc_pic.a(strchr-sse2-no-bsf.os)
                              /home/andrea/Desktop/Star-Os/glibc-2.38/build/libc_pic.a(strchr.os) (__strchr_sse2_no_bsf)
/home/andrea/Desktop/Star-Os/glibc-2.38/build/libc_pic.a(strcmp-avx2.os)
                              /home/andrea/Desktop/Star-Os/glibc-2.38/build/libc_pic.a(strcmp.os) (__strcmp_avx2)
/home/andrea/Desktop/Star-Os/glibc-2.38/build/libc_pic.a(strcmp-avx2-rtm.os)
                              /home/andrea/Desktop/Star-Os/glibc-2.38/build/libc_pic.a(strcmp.os) (__strcmp_avx2_rtm)
/home/andrea/Desktop/Star-Os/glibc-2.38/build/libc_pic.a(strcmp-evex.os)
                              /home/andrea/Desktop/Star-Os/glibc-2.38/build/libc_pic.a(strcmp.os) (__strcmp_evex)
/home/andrea/Desktop/Star-Os/glibc-2.38/build/libc_pic.a(strcmp-sse2.os)
                              /home/andrea/Desktop/Star-Os/glibc-2.38/build/libc_pic.a(strcmp.os) (__strcmp_sse2)
/home/andrea/Desktop/Star-Os/glibc-2.38/build/libc_pic.a(strcmp-sse2-unaligned.os)
                              /home/andrea/Desktop/Star-Os/glibc-2.38/build/libc_pic.a(strcmp.os) (__strcmp_sse2_unaligned)
/home/andrea/Desktop/Star-Os/glibc-2.38/build/libc_pic.a(strcmp-sse4_2.os)
                              /home/andrea/Desktop/Star-Os/glibc-2.38/build/libc_pic.a(strcmp.os) (__strcmp_sse42)
/home/andrea/Desktop/Star-Os/glibc-2.38/build/libc_pic.a(strcspn-sse4.os)
                              /home/andrea/Desktop/Star-Os/glibc-2.38/build/libc_pic.a(strcspn.os) (__strcspn_sse42)
/home/andrea/Desktop/Star-Os/glibc-2.38/build/libc_pic.a(strlen-avx2.os)
                              /home/andrea/Desktop/Star-Os/glibc-2.38/build/libc_pic.a(strlen.os) (__strlen_avx2)
/home/andrea/Desktop/Star-Os/glibc-2.38/build/libc_pic.a(strlen-avx2-rtm.os)
                              /home/andrea/Desktop/Star-Os/glibc-2.38/build/libc_pic.a(strlen.os) (__strlen_avx2_rtm)
/home/andrea/Desktop/Star-Os/glibc-2.38/build/libc_pic.a(strlen-evex.os)
                              /home/andrea/Desktop/Star-Os/glibc-2.38/build/libc_pic.a(strlen.os) (__strlen_evex)
/home/andrea/Desktop/Star-Os/glibc-2.38/build/libc_pic.a(strlen-sse2.os)
                              /home/andrea/Desktop/Star-Os/glibc-2.38/build/libc_pic.a(strlen.os) (__strlen_sse2)
/home/andrea/Desktop/Star-Os/glibc-2.38/build/libc_pic.a(strncmp-avx2.os)
                              /home/andrea/Desktop/Star-Os/glibc-2.38/build/libc_pic.a(strncmp.os) (__strncmp_avx2)
/home/andrea/Desktop/Star-Os/glibc-2.38/build/libc_pic.a(strncmp-avx2-rtm.os)
                              /home/andrea/Desktop/Star-Os/glibc-2.38/build/libc_pic.a(strncmp.os) (__strncmp_avx2_rtm)
/home/andrea/Desktop/Star-Os/glibc-2.38/build/libc_pic.a(strncmp-evex.os)
                              /home/andrea/Desktop/Star-Os/glibc-2.38/build/libc_pic.a(strncmp.os) (__strncmp_evex)
/home/andrea/Desktop/Star-Os/glibc-2.38/build/libc_pic.a(strncmp-sse2.os)
                              /home/andrea/Desktop/Star-Os/glibc-2.38/build/libc_pic.a(strncmp.os) (__strncmp_sse2)
/home/andrea/Desktop/Star-Os/glibc-2.38/build/libc_pic.a(strncmp-sse4_2.os)
                              /home/andrea/Desktop/Star-Os/glibc-2.38/build/libc_pic.a(strncmp.os) (__strncmp_sse42)
/home/andrea/Desktop/Star-Os/glibc-2.38/build/libc_pic.a(strnlen-avx2.os)
                              /home/andrea/Desktop/Star-Os/glibc-2.38/build/libc_pic.a(strnlen.os) (__strnlen_avx2)
/home/andrea/Desktop/Star-Os/glibc-2.38/build/libc_pic.a(strnlen-avx2-rtm.os)
                              /home/andrea/Desktop/Star-Os/glibc-2.38/build/libc_pic.a(strnlen.os) (__strnlen_avx2_rtm)
/home/andrea/Desktop/Star-Os/glibc-2.38/build/libc_pic.a(strnlen-evex.os)
                              /home/andrea/Desktop/Star-Os/glibc-2.38/build/libc_pic.a(strnlen.os) (__strnlen_evex)
/home/andrea/Desktop/Star-Os/glibc-2.38/build/libc_pic.a(strnlen-sse2.os)
                              /home/andrea/Desktop/Star-Os/glibc-2.38/build/libc_pic.a(strnlen.os) (__strnlen_sse2)
/home/andrea/Desktop/Star-Os/glibc-2.38/build/libc_pic.a(varshift.os)
                              /home/andrea/Desktop/Star-Os/glibc-2.38/build/libc_pic.a(strcspn-sse4.os) (___m128i_shift_right)
/home/andrea/Desktop/Star-Os/glibc-2.38/build/libc_pic.a(strcspn-generic.os)
                              /home/andrea/Desktop/Star-Os/glibc-2.38/build/libc_pic.a(strcspn.os) (__strcspn_generic)
/home/andrea/Desktop/Star-Os/glibc-2.38/build/libc_pic.a(cacheinfo.os)
                              /home/andrea/Desktop/Star-Os/glibc-2.38/build/libc_pic.a(memmove-avx512-no-vzeroupper.os) (__x86_shared_cache_size_half)
/home/andrea/Desktop/Star-Os/glibc-2.38/build/libc_pic.a(closedir.os)
                              /home/andrea/Desktop/Star-Os/glibc-2.38/build/elf/dl-allobjs.os (__closedir)
/home/andrea/Desktop/Star-Os/glibc-2.38/build/libc_pic.a(rewinddir.os)
                              /home/andrea/Desktop/Star-Os/glibc-2.38/build/elf/dl-allobjs.os (__rewinddir)
/home/andrea/Desktop/Star-Os/glibc-2.38/build/libc_pic.a(readdir64.os)
                              /home/andrea/Desktop/Star-Os/glibc-2.38/build/elf/dl-allobjs.os (__readdir64)
/home/andrea/Desktop/Star-Os/glibc-2.38/build/libc_pic.a(fdopendir.os)
                              /home/andrea/Desktop/Star-Os/glibc-2.38/build/elf/dl-allobjs.os (__fdopendir)
/home/andrea/Desktop/Star-Os/glibc-2.38/build/libc_pic.a(_exit.os)
                              /home/andrea/Desktop/Star-Os/glibc-2.38/build/elf/dl-allobjs.os (__GI__exit)
/home/andrea/Desktop/Star-Os/glibc-2.38/build/libc_pic.a(getpid.os)
                              /home/andrea/Desktop/Star-Os/glibc-2.38/build/elf/dl-allobjs.os (__getpid)
/home/andrea/Desktop/Star-Os/glibc-2.38/build/libc_pic.a(uname.os)
                              /home/andrea/Desktop/Star-Os/glibc-2.38/build/elf/dl-allobjs.os (__uname)
/home/andrea/Desktop/Star-Os/glibc-2.38/build/libc_pic.a(environ.os)
                              /home/andrea/Desktop/Star-Os/glibc-2.38/build/elf/dl-allobjs.os (__environ)
/home/andrea/Desktop/Star-Os/glibc-2.38/build/libc_pic.a(access.os)
                              /home/andrea/Desktop/Star-Os/glibc-2.38/build/elf/dl-allobjs.os (__access)
/home/andrea/Desktop/Star-Os/glibc-2.38/build/libc_pic.a(fstat64.os)
                              /home/andrea/Desktop/Star-Os/glibc-2.38/build/elf/dl-allobjs.os (__GI___fstat64)
/home/andrea/Desktop/Star-Os/glibc-2.38/build/libc_pic.a(fstatat64.os)
                              /home/andrea/Desktop/Star-Os/glibc-2.38/build/elf/dl-allobjs.os (__GI___fstatat64)
/home/andrea/Desktop/Star-Os/glibc-2.38/build/libc_pic.a(lseek64.os)
                              /home/andrea/Desktop/Star-Os/glibc-2.38/build/libc_pic.a(rewinddir.os) (__GI___lseek)
/home/andrea/Desktop/Star-Os/glibc-2.38/build/libc_pic.a(lstat64.os)
                              /home/andrea/Desktop/Star-Os/glibc-2.38/build/elf/dl-allobjs.os (__GI___lstat64)
/home/andrea/Desktop/Star-Os/glibc-2.38/build/libc_pic.a(openat64.os)
                              /home/andrea/Desktop/Star-Os/glibc-2.38/build/elf/dl-allobjs.os (__openat64)
/home/andrea/Desktop/Star-Os/glibc-2.38/build/libc_pic.a(stat64.os)
                              /home/andrea/Desktop/Star-Os/glibc-2.38/build/elf/dl-allobjs.os (__GI___stat64)
/home/andrea/Desktop/Star-Os/glibc-2.38/build/libc_pic.a(close_nocancel.os)
                              /home/andrea/Desktop/Star-Os/glibc-2.38/build/elf/dl-allobjs.os (__GI___close_nocancel)
/home/andrea/Desktop/Star-Os/glibc-2.38/build/libc_pic.a(fcntl_nocancel.os)
                              /home/andrea/Desktop/Star-Os/glibc-2.38/build/elf/dl-allobjs.os (__GI___fcntl64_nocancel)
/home/andrea/Desktop/Star-Os/glibc-2.38/build/libc_pic.a(open64_nocancel.os)
                              /home/andrea/Desktop/Star-Os/glibc-2.38/build/elf/dl-allobjs.os (__GI___open64_nocancel)
/home/andrea/Desktop/Star-Os/glibc-2.38/build/libc_pic.a(pread64_nocancel.os)
                              /home/andrea/Desktop/Star-Os/glibc-2.38/build/elf/dl-allobjs.os (__GI___pread64_nocancel)
/home/andrea/Desktop/Star-Os/glibc-2.38/build/libc_pic.a(read_nocancel.os)
                              /home/andrea/Desktop/Star-Os/glibc-2.38/build/elf/dl-allobjs.os (__GI___read_nocancel)
/home/andrea/Desktop/Star-Os/glibc-2.38/build/libc_pic.a(write_nocancel.os)
                              /home/andrea/Desktop/Star-Os/glibc-2.38/build/elf/dl-allobjs.os (__GI___write_nocancel)
/home/andrea/Desktop/Star-Os/glibc-2.38/build/libc_pic.a(mmap64.os)
                              /home/andrea/Desktop/Star-Os/glibc-2.38/build/elf/dl-allobjs.os (__mmap)
/home/andrea/Desktop/Star-Os/glibc-2.38/build/libc_pic.a(mprotect.os)
                              /home/andrea/Desktop/Star-Os/glibc-2.38/build/elf/dl-allobjs.os (__mprotect)
/home/andrea/Desktop/Star-Os/glibc-2.38/build/libc_pic.a(munmap.os)
                              /home/andrea/Desktop/Star-Os/glibc-2.38/build/elf/dl-allobjs.os (__munmap)
/home/andrea/Desktop/Star-Os/glibc-2.38/build/libc_pic.a(single_threaded.os)
                              /home/andrea/Desktop/Star-Os/glibc-2.38/build/libc_pic.a(openat64.os) (__libc_single_threaded_internal)
/home/andrea/Desktop/Star-Os/glibc-2.38/build/libc_pic.a(profil.os)
                              /home/andrea/Desktop/Star-Os/glibc-2.38/build/elf/dl-allobjs.os (__profil)
/home/andrea/Desktop/Star-Os/glibc-2.38/build/libc_pic.a(prof-freq.os)
                              /home/andrea/Desktop/Star-Os/glibc-2.38/build/libc_pic.a(profil.os) (__GI___profile_frequency)
/home/andrea/Desktop/Star-Os/glibc-2.38/build/libc_pic.a(dl-addr-obj.os)
                              /home/andrea/Desktop/Star-Os/glibc-2.38/build/elf/dl-allobjs.os (_dl_addr_inside_object)
/home/andrea/Desktop/Star-Os/glibc-2.38/build/libc_pic.a(sigaction.os)
                              /home/andrea/Desktop/Star-Os/glibc-2.38/build/libc_pic.a(profil.os) (__GI___sigaction)
/home/andrea/Desktop/Star-Os/glibc-2.38/build/libc_pic.a(libc_sigaction.os)
                              /home/andrea/Desktop/Star-Os/glibc-2.38/build/libc_pic.a(sigaction.os) (__GI___libc_sigaction)
/home/andrea/Desktop/Star-Os/glibc-2.38/build/libc_pic.a(errname.os)
                              /home/andrea/Desktop/Star-Os/glibc-2.38/build/libc_pic.a(strerrorname_np.os) (__get_errname)
/home/andrea/Desktop/Star-Os/glibc-2.38/build/libc_pic.a(strchrnul.os)
                              /home/andrea/Desktop/Star-Os/glibc-2.38/build/libc_pic.a(strcspn-generic.os) (__GI___strchrnul)
/home/andrea/Desktop/Star-Os/glibc-2.38/build/libc_pic.a(strchrnul-avx2.os)
                              /home/andrea/Desktop/Star-Os/glibc-2.38/build/libc_pic.a(strchrnul.os) (__strchrnul_avx2)
/home/andrea/Desktop/Star-Os/glibc-2.38/build/libc_pic.a(strchrnul-avx2-rtm.os)
                              /home/andrea/Desktop/Star-Os/glibc-2.38/build/libc_pic.a(strchrnul.os) (__strchrnul_avx2_rtm)
/home/andrea/Desktop/Star-Os/glibc-2.38/build/libc_pic.a(strchrnul-evex.os)
                              /home/andrea/Desktop/Star-Os/glibc-2.38/build/libc_pic.a(strchrnul.os) (__strchrnul_evex)
/home/andrea/Desktop/Star-Os/glibc-2.38/build/libc_pic.a(strchrnul-sse2.os)
                              /home/andrea/Desktop/Star-Os/glibc-2.38/build/libc_pic.a(strchrnul.os) (__strchrnul_sse2)
/home/andrea/Desktop/Star-Os/glibc-2.38/build/libc_pic.a(setitimer.os)
                              /home/andrea/Desktop/Star-Os/glibc-2.38/build/libc_pic.a(profil.os) (__setitimer)
/home/andrea/Desktop/Star-Os/glibc-2.38/build/libc_pic.a(getdents64.os)
                              /home/andrea/Desktop/Star-Os/glibc-2.38/build/libc_pic.a(readdir64.os) (__GI___getdents64)

Merging program properties

Removed property 0xc0000002 to merge /home/andrea/Desktop/Star-Os/glibc-2.38/build/elf/dl-allobjs.os (0x3) and /home/andrea/Desktop/Star-Os/glibc-2.38/build/elf/librtld.mapT.o (not found)
Removed property 0xc0000002 to merge /home/andrea/Desktop/Star-Os/glibc-2.38/build/elf/dl-allobjs.os (not found) and /home/andrea/Desktop/Star-Os/glibc-2.38/build/libc_pic.a(check_fds.os) (0x3)
Removed property 0xc0000002 to merge /home/andrea/Desktop/Star-Os/glibc-2.38/build/elf/dl-allobjs.os (not found) and /home/andrea/Desktop/Star-Os/glibc-2.38/build/libc_pic.a(errno.os) (0x3)
Removed property 0xc0000002 to merge /home/andrea/Desktop/Star-Os/glibc-2.38/build/elf/dl-allobjs.os (not found) and /home/andrea/Desktop/Star-Os/glibc-2.38/build/libc_pic.a(setjmp.os) (0x3)
Removed property 0xc0000002 to merge /home/andrea/Desktop/Star-Os/glibc-2.38/build/elf/dl-allobjs.os (not found) and /home/andrea/Desktop/Star-Os/glibc-2.38/build/libc_pic.a(__longjmp.os) (0x3)
Removed property 0xc0000002 to merge /home/andrea/Desktop/Star-Os/glibc-2.38/build/elf/dl-allobjs.os (not found) and /home/andrea/Desktop/Star-Os/glibc-2.38/build/libc_pic.a(lowlevellock.os) (0x3)
Removed property 0xc0000002 to merge /home/andrea/Desktop/Star-Os/glibc-2.38/build/elf/dl-allobjs.os (not found) and /home/andrea/Desktop/Star-Os/glibc-2.38/build/libc_pic.a(scratch_buffer_set_array_size.os) (0x3)
Removed property 0xc0000002 to merge /home/andrea/Desktop/Star-Os/glibc-2.38/build/elf/dl-allobjs.os (not found) and /home/andrea/Desktop/Star-Os/glibc-2.38/build/libc_pic.a(memchr.os) (0x3)
Removed property 0xc0000002 to merge /home/andrea/Desktop/Star-Os/glibc-2.38/build/elf/dl-allobjs.os (not found) and /home/andrea/Desktop/Star-Os/glibc-2.38/build/libc_pic.a(memcmp.os) (0x3)
Removed property 0xc0000002 to merge /home/andrea/Desktop/Star-Os/glibc-2.38/build/elf/dl-allobjs.os (not found) and /home/andrea/Desktop/Star-Os/glibc-2.38/build/libc_pic.a(memcpy.os) (0x3)
Removed property 0xc0000002 to merge /home/andrea/Desktop/Star-Os/glibc-2.38/build/elf/dl-allobjs.os (not found) and /home/andrea/Desktop/Star-Os/glibc-2.38/build/libc_pic.a(memmove.os) (0x3)
Removed property 0xc0000002 to merge /home/andrea/Desktop/Star-Os/glibc-2.38/build/elf/dl-allobjs.os (not found) and /home/andrea/Desktop/Star-Os/glibc-2.38/build/libc_pic.a(mempcpy.os) (0x3)
Removed property 0xc0000002 to merge /home/andrea/Desktop/Star-Os/glibc-2.38/build/elf/dl-allobjs.os (not found) and /home/andrea/Desktop/Star-Os/glibc-2.38/build/libc_pic.a(memset.os) (0x3)
Removed property 0xc0000002 to merge /home/andrea/Desktop/Star-Os/glibc-2.38/build/elf/dl-allobjs.os (not found) and /home/andrea/Desktop/Star-Os/glibc-2.38/build/libc_pic.a(stpcpy.os) (0x3)
Removed property 0xc0000002 to merge /home/andrea/Desktop/Star-Os/glibc-2.38/build/elf/dl-allobjs.os (not found) and /home/andrea/Desktop/Star-Os/glibc-2.38/build/libc_pic.a(strchr.os) (0x3)
Removed property 0xc0000002 to merge /home/andrea/Desktop/Star-Os/glibc-2.38/build/elf/dl-allobjs.os (not found) and /home/andrea/Desktop/Star-Os/glibc-2.38/build/libc_pic.a(strcmp.os) (0x3)
Removed property 0xc0000002 to merge /home/andrea/Desktop/Star-Os/glibc-2.38/build/elf/dl-allobjs.os (not found) and /home/andrea/Desktop/Star-Os/glibc-2.38/build/libc_pic.a(strcspn.os) (0x3)
Removed property 0xc0000002 to merge /home/andrea/Desktop/Star-Os/glibc-2.38/build/elf/dl-allobjs.os (not found) and /home/andrea/Desktop/Star-Os/glibc-2.38/build/libc_pic.a(strdup.os) (0x3)
Removed property 0xc0000002 to merge /home/andrea/Desktop/Star-Os/glibc-2.38/build/elf/dl-allobjs.os (not found) and /home/andrea/Desktop/Star-Os/glibc-2.38/build/libc_pic.a(strerrorname_np.os) (0x3)
Removed property 0xc0000002 to merge /home/andrea/Desktop/Star-Os/glibc-2.38/build/elf/dl-allobjs.os (not found) and /home/andrea/Desktop/Star-Os/glibc-2.38/build/libc_pic.a(strlen.os) (0x3)
Removed property 0xc0000002 to merge /home/andrea/Desktop/Star-Os/glibc-2.38/build/elf/dl-allobjs.os (not found) and /home/andrea/Desktop/Star-Os/glibc-2.38/build/libc_pic.a(strncmp.os) (0x3)
Removed property 0xc0000002 to merge /home/andrea/Desktop/Star-Os/glibc-2.38/build/elf/dl-allobjs.os (not found) and /home/andrea/Desktop/Star-Os/glibc-2.38/build/libc_pic.a(strnlen.os) (0x3)
Removed property 0xc0000002 to merge /home/andrea/Desktop/Star-Os/glibc-2.38/build/elf/dl-allobjs.os (not found) and /home/andrea/Desktop/Star-Os/glibc-2.38/build/libc_pic.a(memchr-avx2.os) (0x3)
Removed property 0xc0000002 to merge /home/andrea/Desktop/Star-Os/glibc-2.38/build/elf/dl-allobjs.os (not found) and /home/andrea/Desktop/Star-Os/glibc-2.38/build/libc_pic.a(memchr-avx2-rtm.os) (0x3)
Removed property 0xc0000002 to merge /home/andrea/Desktop/Star-Os/glibc-2.38/build/elf/dl-allobjs.os (not found) and /home/andrea/Desktop/Star-Os/glibc-2.38/build/libc_pic.a(memchr-evex.os) (0x3)
Removed property 0xc0000002 to merge /home/andrea/Desktop/Star-Os/glibc-2.38/build/elf/dl-allobjs.os (not found) and /home/andrea/Desktop/Star-Os/glibc-2.38/build/libc_pic.a(memchr-evex-rtm.os) (0x3)
Removed property 0xc0000002 to merge /home/andrea/Desktop/Star-Os/glibc-2.38/build/elf/dl-allobjs.os (not found) and /home/andrea/Desktop/Star-Os/glibc-2.38/build/libc_pic.a(memchr-sse2.os) (0x3)
Removed property 0xc0000002 to merge /home/andrea/Desktop/Star-Os/glibc-2.38/build/elf/dl-allobjs.os (not found) and /home/andrea/Desktop/Star-Os/glibc-2.38/build/libc_pic.a(memcmp-avx2-movbe.os) (0x3)
Removed property 0xc0000002 to merge /home/andrea/Desktop/Star-Os/glibc-2.38/build/elf/dl-allobjs.os (not found) and /home/andrea/Desktop/Star-Os/glibc-2.38/build/libc_pic.a(memcmp-avx2-movbe-rtm.os) (0x3)
Removed property 0xc0000002 to merge /home/andrea/Desktop/Star-Os/glibc-2.38/build/elf/dl-allobjs.os (not found) and /home/andrea/Desktop/Star-Os/glibc-2.38/build/libc_pic.a(memcmp-evex-movbe.os) (0x3)
Removed property 0xc0000002 to merge /home/andrea/Desktop/Star-Os/glibc-2.38/build/elf/dl-allobjs.os (not found) and /home/andrea/Desktop/Star-Os/glibc-2.38/build/libc_pic.a(memcmp-sse2.os) (0x3)
Removed property 0xc0000002 to merge /home/andrea/Desktop/Star-Os/glibc-2.38/build/elf/dl-allobjs.os (not found) and /home/andrea/Desktop/Star-Os/glibc-2.38/build/libc_pic.a(memmove-avx-unaligned-erms.os) (0x3)
Removed property 0xc0000002 to merge /home/andrea/Desktop/Star-Os/glibc-2.38/build/elf/dl-allobjs.os (not found) and /home/andrea/Desktop/Star-Os/glibc-2.38/build/libc_pic.a(memmove-avx-unaligned-erms-rtm.os) (0x3)
Removed property 0xc0000002 to merge /home/andrea/Desktop/Star-Os/glibc-2.38/build/elf/dl-allobjs.os (not found) and /home/andrea/Desktop/Star-Os/glibc-2.38/build/libc_pic.a(memmove-avx512-no-vzeroupper.os) (0x3)
Removed property 0xc0000002 to merge /home/andrea/Desktop/Star-Os/glibc-2.38/build/elf/dl-allobjs.os (not found) and /home/andrea/Desktop/Star-Os/glibc-2.38/build/libc_pic.a(memmove-avx512-unaligned-erms.os) (0x3)
Removed property 0xc0000002 to merge /home/andrea/Desktop/Star-Os/glibc-2.38/build/elf/dl-allobjs.os (not found) and /home/andrea/Desktop/Star-Os/glibc-2.38/build/libc_pic.a(memmove-erms.os) (0x3)
Removed property 0xc0000002 to merge /home/andrea/Desktop/Star-Os/glibc-2.38/build/elf/dl-allobjs.os (not found) and /home/andrea/Desktop/Star-Os/glibc-2.38/build/libc_pic.a(memmove-evex-unaligned-erms.os) (0x3)
Removed property 0xc0000002 to merge /home/andrea/Desktop/Star-Os/glibc-2.38/build/elf/dl-allobjs.os (not found) and /home/andrea/Desktop/Star-Os/glibc-2.38/build/libc_pic.a(memmove-sse2-unaligned-erms.os) (0x3)
Removed property 0xc0000002 to merge /home/andrea/Desktop/Star-Os/glibc-2.38/build/elf/dl-allobjs.os (not found) and /home/andrea/Desktop/Star-Os/glibc-2.38/build/libc_pic.a(memmove-ssse3.os) (0x3)
Removed property 0xc0000002 to merge /home/andrea/Desktop/Star-Os/glibc-2.38/build/elf/dl-allobjs.os (not found) and /home/andrea/Desktop/Star-Os/glibc-2.38/build/libc_pic.a(memset-avx2-unaligned-erms.os) (0x3)
Removed property 0xc0000002 to merge /home/andrea/Desktop/Star-Os/glibc-2.38/build/elf/dl-allobjs.os (not found) and /home/andrea/Desktop/Star-Os/glibc-2.38/build/libc_pic.a(memset-avx2-unaligned-erms-rtm.os) (0x3)
Removed property 0xc0000002 to merge /home/andrea/Desktop/Star-Os/glibc-2.38/build/elf/dl-allobjs.os (not found) and /home/andrea/Desktop/Star-Os/glibc-2.38/build/libc_pic.a(memset-avx512-no-vzeroupper.os) (0x3)
Removed property 0xc0000002 to merge /home/andrea/Desktop/Star-Os/glibc-2.38/build/elf/dl-allobjs.os (not found) and /home/andrea/Desktop/Star-Os/glibc-2.38/build/libc_pic.a(memset-avx512-unaligned-erms.os) (0x3)
Removed property 0xc0000002 to merge /home/andrea/Desktop/Star-Os/glibc-2.38/build/elf/dl-allobjs.os (not found) and /home/andrea/Desktop/Star-Os/glibc-2.38/build/libc_pic.a(memset-erms.os) (0x3)
Removed property 0xc0000002 to merge /home/andrea/Desktop/Star-Os/glibc-2.38/build/elf/dl-allobjs.os (not found) and /home/andrea/Desktop/Star-Os/glibc-2.38/build/libc_pic.a(memset-evex-unaligned-erms.os) (0x3)
Removed property 0xc0000002 to merge /home/andrea/Desktop/Star-Os/glibc-2.38/build/elf/dl-allobjs.os (not found) and /home/andrea/Desktop/Star-Os/glibc-2.38/build/libc_pic.a(memset-sse2-unaligned-erms.os) (0x3)
Removed property 0xc0000002 to merge /home/andrea/Desktop/Star-Os/glibc-2.38/build/elf/dl-allobjs.os (not found) and /home/andrea/Desktop/Star-Os/glibc-2.38/build/libc_pic.a(stpcpy-avx2.os) (0x3)
Removed property 0xc0000002 to merge /home/andrea/Desktop/Star-Os/glibc-2.38/build/elf/dl-allobjs.os (not found) and /home/andrea/Desktop/Star-Os/glibc-2.38/build/libc_pic.a(stpcpy-avx2-rtm.os) (0x3)
Removed property 0xc0000002 to merge /home/andrea/Desktop/Star-Os/glibc-2.38/build/elf/dl-allobjs.os (not found) and /home/andrea/Desktop/Star-Os/glibc-2.38/build/libc_pic.a(stpcpy-evex.os) (0x3)
Removed property 0xc0000002 to merge /home/andrea/Desktop/Star-Os/glibc-2.38/build/elf/dl-allobjs.os (not found) and /home/andrea/Desktop/Star-Os/glibc-2.38/build/libc_pic.a(stpcpy-sse2.os) (0x3)
Removed property 0xc0000002 to merge /home/andrea/Desktop/Star-Os/glibc-2.38/build/elf/dl-allobjs.os (not found) and /home/andrea/Desktop/Star-Os/glibc-2.38/build/libc_pic.a(stpcpy-sse2-unaligned.os) (0x3)
Removed property 0xc0000002 to merge /home/andrea/Desktop/Star-Os/glibc-2.38/build/elf/dl-allobjs.os (not found) and /home/andrea/Desktop/Star-Os/glibc-2.38/build/libc_pic.a(strchr-avx2.os) (0x3)
Removed property 0xc0000002 to merge /home/andrea/Desktop/Star-Os/glibc-2.38/build/elf/dl-allobjs.os (not found) and /home/andrea/Desktop/Star-Os/glibc-2.38/build/libc_pic.a(strchr-avx2-rtm.os) (0x3)
Removed property 0xc0000002 to merge /home/andrea/Desktop/Star-Os/glibc-2.38/build/elf/dl-allobjs.os (not found) and /home/andrea/Desktop/Star-Os/glibc-2.38/build/libc_pic.a(strchr-evex.os) (0x3)
Removed property 0xc0000002 to merge /home/andrea/Desktop/Star-Os/glibc-2.38/build/elf/dl-allobjs.os (not found) and /home/andrea/Desktop/Star-Os/glibc-2.38/build/libc_pic.a(strchr-sse2.os) (0x3)
Removed property 0xc0000002 to merge /home/andrea/Desktop/Star-Os/glibc-2.38/build/elf/dl-allobjs.os (not found) and /home/andrea/Desktop/Star-Os/glibc-2.38/build/libc_pic.a(strchr-sse2-no-bsf.os) (0x3)
Removed property 0xc0000002 to merge /home/andrea/Desktop/Star-Os/glibc-2.38/build/elf/dl-allobjs.os (not found) and /home/andrea/Desktop/Star-Os/glibc-2.38/build/libc_pic.a(strcmp-avx2.os) (0x3)
Removed property 0xc0000002 to merge /home/andrea/Desktop/Star-Os/glibc-2.38/build/elf/dl-allobjs.os (not found) and /home/andrea/Desktop/Star-Os/glibc-2.38/build/libc_pic.a(strcmp-avx2-rtm.os) (0x3)
Removed property 0xc0000002 to merge /home/andrea/Desktop/Star-Os/glibc-2.38/build/elf/dl-allobjs.os (not found) and /home/andrea/Desktop/Star-Os/glibc-2.38/build/libc_pic.a(strcmp-evex.os) (0x3)
Removed property 0xc0000002 to merge /home/andrea/Desktop/Star-Os/glibc-2.38/build/elf/dl-allobjs.os (not found) and /home/andrea/Desktop/Star-Os/glibc-2.38/build/libc_pic.a(strcmp-sse2.os) (0x3)
Removed property 0xc0000002 to merge /home/andrea/Desktop/Star-Os/glibc-2.38/build/elf/dl-allobjs.os (not found) and /home/andrea/Desktop/Star-Os/glibc-2.38/build/libc_pic.a(strcmp-sse2-unaligned.os) (0x3)
Removed property 0xc0000002 to merge /home/andrea/Desktop/Star-Os/glibc-2.38/build/elf/dl-allobjs.os (not found) and /home/andrea/Desktop/Star-Os/glibc-2.38/build/libc_pic.a(strcmp-sse4_2.os) (0x3)
Removed property 0xc0000002 to merge /home/andrea/Desktop/Star-Os/glibc-2.38/build/elf/dl-allobjs.os (not found) and /home/andrea/Desktop/Star-Os/glibc-2.38/build/libc_pic.a(strcspn-sse4.os) (0x3)
Removed property 0xc0000002 to merge /home/andrea/Desktop/Star-Os/glibc-2.38/build/elf/dl-allobjs.os (not found) and /home/andrea/Desktop/Star-Os/glibc-2.38/build/libc_pic.a(strlen-avx2.os) (0x3)
Removed property 0xc0000002 to merge /home/andrea/Desktop/Star-Os/glibc-2.38/build/elf/dl-allobjs.os (not found) and /home/andrea/Desktop/Star-Os/glibc-2.38/build/libc_pic.a(strlen-avx2-rtm.os) (0x3)
Removed property 0xc0000002 to merge /home/andrea/Desktop/Star-Os/glibc-2.38/build/elf/dl-allobjs.os (not found) and /home/andrea/Desktop/Star-Os/glibc-2.38/build/libc_pic.a(strlen-evex.os) (0x3)
Removed property 0xc0000002 to merge /home/andrea/Desktop/Star-Os/glibc-2.38/build/elf/dl-allobjs.os (not found) and /home/andrea/Desktop/Star-Os/glibc-2.38/build/libc_pic.a(strlen-sse2.os) (0x3)
Removed property 0xc0000002 to merge /home/andrea/Desktop/Star-Os/glibc-2.38/build/elf/dl-allobjs.os (not found) and /home/andrea/Desktop/Star-Os/glibc-2.38/build/libc_pic.a(strncmp-avx2.os) (0x3)
Removed property 0xc0000002 to merge /home/andrea/Desktop/Star-Os/glibc-2.38/build/elf/dl-allobjs.os (not found) and /home/andrea/Desktop/Star-Os/glibc-2.38/build/libc_pic.a(strncmp-avx2-rtm.os) (0x3)
Removed property 0xc0000002 to merge /home/andrea/Desktop/Star-Os/glibc-2.38/build/elf/dl-allobjs.os (not found) and /home/andrea/Desktop/Star-Os/glibc-2.38/build/libc_pic.a(strncmp-evex.os) (0x3)
Removed property 0xc0000002 to merge /home/andrea/Desktop/Star-Os/glibc-2.38/build/elf/dl-allobjs.os (not found) and /home/andrea/Desktop/Star-Os/glibc-2.38/build/libc_pic.a(strncmp-sse2.os) (0x3)
Removed property 0xc0000002 to merge /home/andrea/Desktop/Star-Os/glibc-2.38/build/elf/dl-allobjs.os (not found) and /home/andrea/Desktop/Star-Os/glibc-2.38/build/libc_pic.a(strncmp-sse4_2.os) (0x3)
Removed property 0xc0000002 to merge /home/andrea/Desktop/Star-Os/glibc-2.38/build/elf/dl-allobjs.os (not found) and /home/andrea/Desktop/Star-Os/glibc-2.38/build/libc_pic.a(strnlen-avx2.os) (0x3)
Removed property 0xc0000002 to merge /home/andrea/Desktop/Star-Os/glibc-2.38/build/elf/dl-allobjs.os (not found) and /home/andrea/Desktop/Star-Os/glibc-2.38/build/libc_pic.a(strnlen-avx2-rtm.os) (0x3)
Removed property 0xc0000002 to merge /home/andrea/Desktop/Star-Os/glibc-2.38/build/elf/dl-allobjs.os (not found) and /home/andrea/Desktop/Star-Os/glibc-2.38/build/libc_pic.a(strnlen-evex.os) (0x3)
Removed property 0xc0000002 to merge /home/andrea/Desktop/Star-Os/glibc-2.38/build/elf/dl-allobjs.os (not found) and /home/andrea/Desktop/Star-Os/glibc-2.38/build/libc_pic.a(strnlen-sse2.os) (0x3)
Removed property 0xc0000002 to merge /home/andrea/Desktop/Star-Os/glibc-2.38/build/elf/dl-allobjs.os (not found) and /home/andrea/Desktop/Star-Os/glibc-2.38/build/libc_pic.a(varshift.os) (0x3)
Removed property 0xc0000002 to merge /home/andrea/Desktop/Star-Os/glibc-2.38/build/elf/dl-allobjs.os (not found) and /home/andrea/Desktop/Star-Os/glibc-2.38/build/libc_pic.a(strcspn-generic.os) (0x3)
Removed property 0xc0000002 to merge /home/andrea/Desktop/Star-Os/glibc-2.38/build/elf/dl-allobjs.os (not found) and /home/andrea/Desktop/Star-Os/glibc-2.38/build/libc_pic.a(cacheinfo.os) (0x3)
Removed property 0xc0000002 to merge /home/andrea/Desktop/Star-Os/glibc-2.38/build/elf/dl-allobjs.os (not found) and /home/andrea/Desktop/Star-Os/glibc-2.38/build/libc_pic.a(closedir.os) (0x3)
Removed property 0xc0000002 to merge /home/andrea/Desktop/Star-Os/glibc-2.38/build/elf/dl-allobjs.os (not found) and /home/andrea/Desktop/Star-Os/glibc-2.38/build/libc_pic.a(rewinddir.os) (0x3)
Removed property 0xc0000002 to merge /home/andrea/Desktop/Star-Os/glibc-2.38/build/elf/dl-allobjs.os (not found) and /home/andrea/Desktop/Star-Os/glibc-2.38/build/libc_pic.a(readdir64.os) (0x3)
Removed property 0xc0000002 to merge /home/andrea/Desktop/Star-Os/glibc-2.38/build/elf/dl-allobjs.os (not found) and /home/andrea/Desktop/Star-Os/glibc-2.38/build/libc_pic.a(fdopendir.os) (0x3)
Removed property 0xc0000002 to merge /home/andrea/Desktop/Star-Os/glibc-2.38/build/elf/dl-allobjs.os (not found) and /home/andrea/Desktop/Star-Os/glibc-2.38/build/libc_pic.a(_exit.os) (0x3)
Removed property 0xc0000002 to merge /home/andrea/Desktop/Star-Os/glibc-2.38/build/elf/dl-allobjs.os (not found) and /home/andrea/Desktop/Star-Os/glibc-2.38/build/libc_pic.a(getpid.os) (0x3)
Removed property 0xc0000002 to merge /home/andrea/Desktop/Star-Os/glibc-2.38/build/elf/dl-allobjs.os (not found) and /home/andrea/Desktop/Star-Os/glibc-2.38/build/libc_pic.a(uname.os) (0x3)
Removed property 0xc0000002 to merge /home/andrea/Desktop/Star-Os/glibc-2.38/build/elf/dl-allobjs.os (not found) and /home/andrea/Desktop/Star-Os/glibc-2.38/build/libc_pic.a(environ.os) (0x3)
Removed property 0xc0000002 to merge /home/andrea/Desktop/Star-Os/glibc-2.38/build/elf/dl-allobjs.os (not found) and /home/andrea/Desktop/Star-Os/glibc-2.38/build/libc_pic.a(access.os) (0x3)
Removed property 0xc0000002 to merge /home/andrea/Desktop/Star-Os/glibc-2.38/build/elf/dl-allobjs.os (not found) and /home/andrea/Desktop/Star-Os/glibc-2.38/build/libc_pic.a(fstat64.os) (0x3)
Removed property 0xc0000002 to merge /home/andrea/Desktop/Star-Os/glibc-2.38/build/elf/dl-allobjs.os (not found) and /home/andrea/Desktop/Star-Os/glibc-2.38/build/libc_pic.a(fstatat64.os) (0x3)
Removed property 0xc0000002 to merge /home/andrea/Desktop/Star-Os/glibc-2.38/build/elf/dl-allobjs.os (not found) and /home/andrea/Desktop/Star-Os/glibc-2.38/build/libc_pic.a(lseek64.os) (0x3)
Removed property 0xc0000002 to merge /home/andrea/Desktop/Star-Os/glibc-2.38/build/elf/dl-allobjs.os (not found) and /home/andrea/Desktop/Star-Os/glibc-2.38/build/libc_pic.a(lstat64.os) (0x3)
Removed property 0xc0000002 to merge /home/andrea/Desktop/Star-Os/glibc-2.38/build/elf/dl-allobjs.os (not found) and /home/andrea/Desktop/Star-Os/glibc-2.38/build/libc_pic.a(openat64.os) (0x3)
Removed property 0xc0000002 to merge /home/andrea/Desktop/Star-Os/glibc-2.38/build/elf/dl-allobjs.os (not found) and /home/andrea/Desktop/Star-Os/glibc-2.38/build/libc_pic.a(stat64.os) (0x3)
Removed property 0xc0000002 to merge /home/andrea/Desktop/Star-Os/glibc-2.38/build/elf/dl-allobjs.os (not found) and /home/andrea/Desktop/Star-Os/glibc-2.38/build/libc_pic.a(close_nocancel.os) (0x3)
Removed property 0xc0000002 to merge /home/andrea/Desktop/Star-Os/glibc-2.38/build/elf/dl-allobjs.os (not found) and /home/andrea/Desktop/Star-Os/glibc-2.38/build/libc_pic.a(fcntl_nocancel.os) (0x3)
Removed property 0xc0000002 to merge /home/andrea/Desktop/Star-Os/glibc-2.38/build/elf/dl-allobjs.os (not found) and /home/andrea/Desktop/Star-Os/glibc-2.38/build/libc_pic.a(open64_nocancel.os) (0x3)
Removed property 0xc0000002 to merge /home/andrea/Desktop/Star-Os/glibc-2.38/build/elf/dl-allobjs.os (not found) and /home/andrea/Desktop/Star-Os/glibc-2.38/build/libc_pic.a(pread64_nocancel.os) (0x3)
Removed property 0xc0000002 to merge /home/andrea/Desktop/Star-Os/glibc-2.38/build/elf/dl-allobjs.os (not found) and /home/andrea/Desktop/Star-Os/glibc-2.38/build/libc_pic.a(read_nocancel.os) (0x3)
Removed property 0xc0000002 to merge /home/andrea/Desktop/Star-Os/glibc-2.38/build/elf/dl-allobjs.os (not found) and /home/andrea/Desktop/Star-Os/glibc-2.38/build/libc_pic.a(write_nocancel.os) (0x3)
Removed property 0xc0000002 to merge /home/andrea/Desktop/Star-Os/glibc-2.38/build/elf/dl-allobjs.os (not found) and /home/andrea/Desktop/Star-Os/glibc-2.38/build/libc_pic.a(mmap64.os) (0x3)
Removed property 0xc0000002 to merge /home/andrea/Desktop/Star-Os/glibc-2.38/build/elf/dl-allobjs.os (not found) and /home/andrea/Desktop/Star-Os/glibc-2.38/build/libc_pic.a(mprotect.os) (0x3)
Removed property 0xc0000002 to merge /home/andrea/Desktop/Star-Os/glibc-2.38/build/elf/dl-allobjs.os (not found) and /home/andrea/Desktop/Star-Os/glibc-2.38/build/libc_pic.a(munmap.os) (0x3)
Removed property 0xc0000002 to merge /home/andrea/Desktop/Star-Os/glibc-2.38/build/elf/dl-allobjs.os (not found) and /home/andrea/Desktop/Star-Os/glibc-2.38/build/libc_pic.a(single_threaded.os) (0x3)
Removed property 0xc0000002 to merge /home/andrea/Desktop/Star-Os/glibc-2.38/build/elf/dl-allobjs.os (not found) and /home/andrea/Desktop/Star-Os/glibc-2.38/build/libc_pic.a(profil.os) (0x3)
Removed property 0xc0000002 to merge /home/andrea/Desktop/Star-Os/glibc-2.38/build/elf/dl-allobjs.os (not found) and /home/andrea/Desktop/Star-Os/glibc-2.38/build/libc_pic.a(prof-freq.os) (0x3)
Removed property 0xc0000002 to merge /home/andrea/Desktop/Star-Os/glibc-2.38/build/elf/dl-allobjs.os (not found) and /home/andrea/Desktop/Star-Os/glibc-2.38/build/libc_pic.a(dl-addr-obj.os) (0x3)
Removed property 0xc0000002 to merge /home/andrea/Desktop/Star-Os/glibc-2.38/build/elf/dl-allobjs.os (not found) and /home/andrea/Desktop/Star-Os/glibc-2.38/build/libc_pic.a(sigaction.os) (0x3)
Removed property 0xc0000002 to merge /home/andrea/Desktop/Star-Os/glibc-2.38/build/elf/dl-allobjs.os (not found) and /home/andrea/Desktop/Star-Os/glibc-2.38/build/libc_pic.a(libc_sigaction.os) (0x3)
Removed property 0xc0000002 to merge /home/andrea/Desktop/Star-Os/glibc-2.38/build/elf/dl-allobjs.os (not found) and /home/andrea/Desktop/Star-Os/glibc-2.38/build/libc_pic.a(errname.os) (0x3)
Removed property 0xc0000002 to merge /home/andrea/Desktop/Star-Os/glibc-2.38/build/elf/dl-allobjs.os (not found) and /home/andrea/Desktop/Star-Os/glibc-2.38/build/libc_pic.a(strchrnul.os) (0x3)
Removed property 0xc0000002 to merge /home/andrea/Desktop/Star-Os/glibc-2.38/build/elf/dl-allobjs.os (not found) and /home/andrea/Desktop/Star-Os/glibc-2.38/build/libc_pic.a(strchrnul-avx2.os) (0x3)
Removed property 0xc0000002 to merge /home/andrea/Desktop/Star-Os/glibc-2.38/build/elf/dl-allobjs.os (not found) and /home/andrea/Desktop/Star-Os/glibc-2.38/build/libc_pic.a(strchrnul-avx2-rtm.os) (0x3)
Removed property 0xc0000002 to merge /home/andrea/Desktop/Star-Os/glibc-2.38/build/elf/dl-allobjs.os (not found) and /home/andrea/Desktop/Star-Os/glibc-2.38/build/libc_pic.a(strchrnul-evex.os) (0x3)
Removed property 0xc0000002 to merge /home/andrea/Desktop/Star-Os/glibc-2.38/build/elf/dl-allobjs.os (not found) and /home/andrea/Desktop/Star-Os/glibc-2.38/build/libc_pic.a(strchrnul-sse2.os) (0x3)
Removed property 0xc0000002 to merge /home/andrea/Desktop/Star-Os/glibc-2.38/build/elf/dl-allobjs.os (not found) and /home/andrea/Desktop/Star-Os/glibc-2.38/build/libc_pic.a(setitimer.os) (0x3)
Removed property 0xc0000002 to merge /home/andrea/Desktop/Star-Os/glibc-2.38/build/elf/dl-allobjs.os (not found) and /home/andrea/Desktop/Star-Os/glibc-2.38/build/libc_pic.a(getdents64.os) (0x3)

Discarded input sections

 .note.gnu.property
                0x0000000000000000       0x20 /home/andrea/Desktop/Star-Os/glibc-2.38/build/elf/dl-allobjs.os
 .note.gnu.property
                0x0000000000000000       0x20 /home/andrea/Desktop/Star-Os/glibc-2.38/build/libc_pic.a(check_fds.os)
 .note.gnu.property
                0x0000000000000000       0x20 /home/andrea/Desktop/Star-Os/glibc-2.38/build/libc_pic.a(errno.os)
 .note.gnu.property
                0x0000000000000000       0x20 /home/andrea/Desktop/Star-Os/glibc-2.38/build/libc_pic.a(setjmp.os)
 .note.gnu.property
                0x0000000000000000       0x20 /home/andrea/Desktop/Star-Os/glibc-2.38/build/libc_pic.a(__longjmp.os)
 .note.gnu.property
                0x0000000000000000       0x20 /home/andrea/Desktop/Star-Os/glibc-2.38/build/libc_pic.a(lowlevellock.os)
 .note.gnu.property
                0x0000000000000000       0x20 /home/andrea/Desktop/Star-Os/glibc-2.38/build/libc_pic.a(scratch_buffer_set_array_size.os)
 .note.gnu.property
                0x0000000000000000       0x20 /home/andrea/Desktop/Star-Os/glibc-2.38/build/libc_pic.a(memchr.os)
 .note.gnu.property
                0x0000000000000000       0x20 /home/andrea/Desktop/Star-Os/glibc-2.38/build/libc_pic.a(memcmp.os)
 .note.gnu.property
                0x0000000000000000       0x20 /home/andrea/Desktop/Star-Os/glibc-2.38/build/libc_pic.a(memcpy.os)
 .note.gnu.property
                0x0000000000000000       0x20 /home/andrea/Desktop/Star-Os/glibc-2.38/build/libc_pic.a(memmove.os)
 .note.gnu.property
                0x0000000000000000       0x20 /home/andrea/Desktop/Star-Os/glibc-2.38/build/libc_pic.a(mempcpy.os)
 .note.gnu.property
                0x0000000000000000       0x20 /home/andrea/Desktop/Star-Os/glibc-2.38/build/libc_pic.a(memset.os)
 .note.gnu.property
                0x0000000000000000       0x20 /home/andrea/Desktop/Star-Os/glibc-2.38/build/libc_pic.a(stpcpy.os)
 .note.gnu.property
                0x0000000000000000       0x20 /home/andrea/Desktop/Star-Os/glibc-2.38/build/libc_pic.a(strchr.os)
 .note.gnu.property
                0x0000000000000000       0x20 /home/andrea/Desktop/Star-Os/glibc-2.38/build/libc_pic.a(strcmp.os)
 .note.gnu.property
                0x0000000000000000       0x20 /home/andrea/Desktop/Star-Os/glibc-2.38/build/libc_pic.a(strcspn.os)
 .note.gnu.property
                0x0000000000000000       0x20 /home/andrea/Desktop/Star-Os/glibc-2.38/build/libc_pic.a(strdup.os)
 .note.gnu.property
                0x0000000000000000       0x20 /home/andrea/Desktop/Star-Os/glibc-2.38/build/libc_pic.a(strerrorname_np.os)
 .note.gnu.property
                0x0000000000000000       0x20 /home/andrea/Desktop/Star-Os/glibc-2.38/build/libc_pic.a(strlen.os)
 .note.gnu.property
                0x0000000000000000       0x20 /home/andrea/Desktop/Star-Os/glibc-2.38/build/libc_pic.a(strncmp.os)
 .note.gnu.property
                0x0000000000000000       0x20 /home/andrea/Desktop/Star-Os/glibc-2.38/build/libc_pic.a(strnlen.os)
 .note.gnu.property
                0x0000000000000000       0x20 /home/andrea/Desktop/Star-Os/glibc-2.38/build/libc_pic.a(memchr-avx2.os)
 .note.gnu.property
                0x0000000000000000       0x20 /home/andrea/Desktop/Star-Os/glibc-2.38/build/libc_pic.a(memchr-avx2-rtm.os)
 .note.gnu.property
                0x0000000000000000       0x20 /home/andrea/Desktop/Star-Os/glibc-2.38/build/libc_pic.a(memchr-evex.os)
 .note.gnu.property
                0x0000000000000000       0x20 /home/andrea/Desktop/Star-Os/glibc-2.38/build/libc_pic.a(memchr-evex-rtm.os)
 .note.gnu.property
                0x0000000000000000       0x20 /home/andrea/Desktop/Star-Os/glibc-2.38/build/libc_pic.a(memchr-sse2.os)
 .note.gnu.property
                0x0000000000000000       0x20 /home/andrea/Desktop/Star-Os/glibc-2.38/build/libc_pic.a(memcmp-avx2-movbe.os)
 .note.gnu.property
                0x0000000000000000       0x20 /home/andrea/Desktop/Star-Os/glibc-2.38/build/libc_pic.a(memcmp-avx2-movbe-rtm.os)
 .note.gnu.property
                0x0000000000000000       0x20 /home/andrea/Desktop/Star-Os/glibc-2.38/build/libc_pic.a(memcmp-evex-movbe.os)
 .note.gnu.property
                0x0000000000000000       0x20 /home/andrea/Desktop/Star-Os/glibc-2.38/build/libc_pic.a(memcmp-sse2.os)
 .note.gnu.property
                0x0000000000000000       0x20 /home/andrea/Desktop/Star-Os/glibc-2.38/build/libc_pic.a(memmove-avx-unaligned-erms.os)
 .note.gnu.property
                0x0000000000000000       0x20 /home/andrea/Desktop/Star-Os/glibc-2.38/build/libc_pic.a(memmove-avx-unaligned-erms-rtm.os)
 .note.gnu.property
                0x0000000000000000       0x20 /home/andrea/Desktop/Star-Os/glibc-2.38/build/libc_pic.a(memmove-avx512-no-vzeroupper.os)
 .note.gnu.property
                0x0000000000000000       0x20 /home/andrea/Desktop/Star-Os/glibc-2.38/build/libc_pic.a(memmove-avx512-unaligned-erms.os)
 .note.gnu.property
                0x0000000000000000       0x20 /home/andrea/Desktop/Star-Os/glibc-2.38/build/libc_pic.a(memmove-erms.os)
 .note.gnu.property
                0x0000000000000000       0x20 /home/andrea/Desktop/Star-Os/glibc-2.38/build/libc_pic.a(memmove-evex-unaligned-erms.os)
 .note.gnu.property
                0x0000000000000000       0x20 /home/andrea/Desktop/Star-Os/glibc-2.38/build/libc_pic.a(memmove-sse2-unaligned-erms.os)
 .note.gnu.property
                0x0000000000000000       0x20 /home/andrea/Desktop/Star-Os/glibc-2.38/build/libc_pic.a(memmove-ssse3.os)
 .note.gnu.property
                0x0000000000000000       0x20 /home/andrea/Desktop/Star-Os/glibc-2.38/build/libc_pic.a(memset-avx2-unaligned-erms.os)
 .note.gnu.property
                0x0000000000000000       0x20 /home/andrea/Desktop/Star-Os/glibc-2.38/build/libc_pic.a(memset-avx2-unaligned-erms-rtm.os)
 .note.gnu.property
                0x0000000000000000       0x20 /home/andrea/Desktop/Star-Os/glibc-2.38/build/libc_pic.a(memset-avx512-no-vzeroupper.os)
 .note.gnu.property
                0x0000000000000000       0x20 /home/andrea/Desktop/Star-Os/glibc-2.38/build/libc_pic.a(memset-avx512-unaligned-erms.os)
 .note.gnu.property
                0x0000000000000000       0x20 /home/andrea/Desktop/Star-Os/glibc-2.38/build/libc_pic.a(memset-erms.os)
 .note.gnu.property
                0x0000000000000000       0x20 /home/andrea/Desktop/Star-Os/glibc-2.38/build/libc_pic.a(memset-evex-unaligned-erms.os)
 .note.gnu.property
                0x0000000000000000       0x20 /home/andrea/Desktop/Star-Os/glibc-2.38/build/libc_pic.a(memset-sse2-unaligned-erms.os)
 .note.gnu.property
                0x0000000000000000       0x20 /home/andrea/Desktop/Star-Os/glibc-2.38/build/libc_pic.a(stpcpy-avx2.os)
 .note.gnu.property
                0x0000000000000000       0x20 /home/andrea/Desktop/Star-Os/glibc-2.38/build/libc_pic.a(stpcpy-avx2-rtm.os)
 .note.gnu.property
                0x0000000000000000       0x20 /home/andrea/Desktop/Star-Os/glibc-2.38/build/libc_pic.a(stpcpy-evex.os)
 .note.gnu.property
                0x0000000000000000       0x20 /home/andrea/Desktop/Star-Os/glibc-2.38/build/libc_pic.a(stpcpy-sse2.os)
 .note.gnu.property
                0x0000000000000000       0x20 /home/andrea/Desktop/Star-Os/glibc-2.38/build/libc_pic.a(stpcpy-sse2-unaligned.os)
 .note.gnu.property
                0x0000000000000000       0x20 /home/andrea/Desktop/Star-Os/glibc-2.38/build/libc_pic.a(strchr-avx2.os)
 .note.gnu.property
                0x0000000000000000       0x20 /home/andrea/Desktop/Star-Os/glibc-2.38/build/libc_pic.a(strchr-avx2-rtm.os)
 .note.gnu.property
                0x0000000000000000       0x20 /home/andrea/Desktop/Star-Os/glibc-2.38/build/libc_pic.a(strchr-evex.os)
 .note.gnu.property
                0x0000000000000000       0x20 /home/andrea/Desktop/Star-Os/glibc-2.38/build/libc_pic.a(strchr-sse2.os)
 .note.gnu.property
                0x0000000000000000       0x20 /home/andrea/Desktop/Star-Os/glibc-2.38/build/libc_pic.a(strchr-sse2-no-bsf.os)
 .note.gnu.property
                0x0000000000000000       0x20 /home/andrea/Desktop/Star-Os/glibc-2.38/build/libc_pic.a(strcmp-avx2.os)
 .note.gnu.property
                0x0000000000000000       0x20 /home/andrea/Desktop/Star-Os/glibc-2.38/build/libc_pic.a(strcmp-avx2-rtm.os)
 .note.gnu.property
                0x0000000000000000       0x20 /home/andrea/Desktop/Star-Os/glibc-2.38/build/libc_pic.a(strcmp-evex.os)
 .note.gnu.property
                0x0000000000000000       0x20 /home/andrea/Desktop/Star-Os/glibc-2.38/build/libc_pic.a(strcmp-sse2.os)
 .note.gnu.property
                0x0000000000000000       0x20 /home/andrea/Desktop/Star-Os/glibc-2.38/build/libc_pic.a(strcmp-sse2-unaligned.os)
 .note.gnu.property
                0x0000000000000000       0x20 /home/andrea/Desktop/Star-Os/glibc-2.38/build/libc_pic.a(strcmp-sse4_2.os)
 .note.gnu.property
                0x0000000000000000       0x20 /home/andrea/Desktop/Star-Os/glibc-2.38/build/libc_pic.a(strcspn-sse4.os)
 .note.gnu.property
                0x0000000000000000       0x20 /home/andrea/Desktop/Star-Os/glibc-2.38/build/libc_pic.a(strlen-avx2.os)
 .note.gnu.property
                0x0000000000000000       0x20 /home/andrea/Desktop/Star-Os/glibc-2.38/build/libc_pic.a(strlen-avx2-rtm.os)
 .note.gnu.property
                0x0000000000000000       0x20 /home/andrea/Desktop/Star-Os/glibc-2.38/build/libc_pic.a(strlen-evex.os)
 .note.gnu.property
                0x0000000000000000       0x20 /home/andrea/Desktop/Star-Os/glibc-2.38/build/libc_pic.a(strlen-sse2.os)
 .note.gnu.property
                0x0000000000000000       0x20 /home/andrea/Desktop/Star-Os/glibc-2.38/build/libc_pic.a(strncmp-avx2.os)
 .note.gnu.property
                0x0000000000000000       0x20 /home/andrea/Desktop/Star-Os/glibc-2.38/build/libc_pic.a(strncmp-avx2-rtm.os)
 .note.gnu.property
                0x0000000000000000       0x20 /home/andrea/Desktop/Star-Os/glibc-2.38/build/libc_pic.a(strncmp-evex.os)
 .note.gnu.property
                0x0000000000000000       0x20 /home/andrea/Desktop/Star-Os/glibc-2.38/build/libc_pic.a(strncmp-sse2.os)
 .note.gnu.property
                0x0000000000000000       0x20 /home/andrea/Desktop/Star-Os/glibc-2.38/build/libc_pic.a(strncmp-sse4_2.os)
 .note.gnu.property
                0x0000000000000000       0x20 /home/andrea/Desktop/Star-Os/glibc-2.38/build/libc_pic.a(strnlen-avx2.os)
 .note.gnu.property
                0x0000000000000000       0x20 /home/andrea/Desktop/Star-Os/glibc-2.38/build/libc_pic.a(strnlen-avx2-rtm.os)
 .note.gnu.property
                0x0000000000000000       0x20 /home/andrea/Desktop/Star-Os/glibc-2.38/build/libc_pic.a(strnlen-evex.os)
 .note.gnu.property
                0x0000000000000000       0x20 /home/andrea/Desktop/Star-Os/glibc-2.38/build/libc_pic.a(strnlen-sse2.os)
 .note.gnu.property
                0x0000000000000000       0x20 /home/andrea/Desktop/Star-Os/glibc-2.38/build/libc_pic.a(varshift.os)
 .note.gnu.property
                0x0000000000000000       0x20 /home/andrea/Desktop/Star-Os/glibc-2.38/build/libc_pic.a(strcspn-generic.os)
 .note.gnu.property
                0x0000000000000000       0x20 /home/andrea/Desktop/Star-Os/glibc-2.38/build/libc_pic.a(cacheinfo.os)
 .note.gnu.property
                0x0000000000000000       0x20 /home/andrea/Desktop/Star-Os/glibc-2.38/build/libc_pic.a(closedir.os)
 .note.gnu.property
                0x0000000000000000       0x20 /home/andrea/Desktop/Star-Os/glibc-2.38/build/libc_pic.a(rewinddir.os)
 .note.gnu.property
                0x0000000000000000       0x20 /home/andrea/Desktop/Star-Os/glibc-2.38/build/libc_pic.a(readdir64.os)
 .note.gnu.property
                0x0000000000000000       0x20 /home/andrea/Desktop/Star-Os/glibc-2.38/build/libc_pic.a(fdopendir.os)
 .note.gnu.property
                0x0000000000000000       0x20 /home/andrea/Desktop/Star-Os/glibc-2.38/build/libc_pic.a(_exit.os)
 .note.gnu.property
                0x0000000000000000       0x20 /home/andrea/Desktop/Star-Os/glibc-2.38/build/libc_pic.a(getpid.os)
 .note.gnu.property
                0x0000000000000000       0x20 /home/andrea/Desktop/Star-Os/glibc-2.38/build/libc_pic.a(uname.os)
 .note.gnu.property
                0x0000000000000000       0x20 /home/andrea/Desktop/Star-Os/glibc-2.38/build/libc_pic.a(environ.os)
 .note.gnu.property
                0x0000000000000000       0x20 /home/andrea/Desktop/Star-Os/glibc-2.38/build/libc_pic.a(access.os)
 .note.gnu.property
                0x0000000000000000       0x20 /home/andrea/Desktop/Star-Os/glibc-2.38/build/libc_pic.a(fstat64.os)
 .note.gnu.property
                0x0000000000000000       0x20 /home/andrea/Desktop/Star-Os/glibc-2.38/build/libc_pic.a(fstatat64.os)
 .note.gnu.property
                0x0000000000000000       0x20 /home/andrea/Desktop/Star-Os/glibc-2.38/build/libc_pic.a(lseek64.os)
 .note.gnu.property
                0x0000000000000000       0x20 /home/andrea/Desktop/Star-Os/glibc-2.38/build/libc_pic.a(lstat64.os)
 .note.gnu.property
                0x0000000000000000       0x20 /home/andrea/Desktop/Star-Os/glibc-2.38/build/libc_pic.a(openat64.os)
 .note.gnu.property
                0x0000000000000000       0x20 /home/andrea/Desktop/Star-Os/glibc-2.38/build/libc_pic.a(stat64.os)
 .note.gnu.property
                0x0000000000000000       0x20 /home/andrea/Desktop/Star-Os/glibc-2.38/build/libc_pic.a(close_nocancel.os)
 .note.gnu.property
                0x0000000000000000       0x20 /home/andrea/Desktop/Star-Os/glibc-2.38/build/libc_pic.a(fcntl_nocancel.os)
 .note.gnu.property
                0x0000000000000000       0x20 /home/andrea/Desktop/Star-Os/glibc-2.38/build/libc_pic.a(open64_nocancel.os)
 .note.gnu.property
                0x0000000000000000       0x20 /home/andrea/Desktop/Star-Os/glibc-2.38/build/libc_pic.a(pread64_nocancel.os)
 .note.gnu.property
                0x0000000000000000       0x20 /home/andrea/Desktop/Star-Os/glibc-2.38/build/libc_pic.a(read_nocancel.os)
 .note.gnu.property
                0x0000000000000000       0x20 /home/andrea/Desktop/Star-Os/glibc-2.38/build/libc_pic.a(write_nocancel.os)
 .note.gnu.property
                0x0000000000000000       0x20 /home/andrea/Desktop/Star-Os/glibc-2.38/build/libc_pic.a(mmap64.os)
 .note.gnu.property
                0x0000000000000000       0x20 /home/andrea/Desktop/Star-Os/glibc-2.38/build/libc_pic.a(mprotect.os)
 .note.gnu.property
                0x0000000000000000       0x20 /home/andrea/Desktop/Star-Os/glibc-2.38/build/libc_pic.a(munmap.os)
 .note.gnu.property
                0x0000000000000000       0x20 /home/andrea/Desktop/Star-Os/glibc-2.38/build/libc_pic.a(single_threaded.os)
 .note.gnu.property
                0x0000000000000000       0x20 /home/andrea/Desktop/Star-Os/glibc-2.38/build/libc_pic.a(profil.os)
 .note.gnu.property
                0x0000000000000000       0x20 /home/andrea/Desktop/Star-Os/glibc-2.38/build/libc_pic.a(prof-freq.os)
 .note.gnu.property
                0x0000000000000000       0x20 /home/andrea/Desktop/Star-Os/glibc-2.38/build/libc_pic.a(dl-addr-obj.os)
 .note.gnu.property
                0x0000000000000000       0x20 /home/andrea/Desktop/Star-Os/glibc-2.38/build/libc_pic.a(sigaction.os)
 .note.gnu.property
                0x0000000000000000       0x20 /home/andrea/Desktop/Star-Os/glibc-2.38/build/libc_pic.a(libc_sigaction.os)
 .note.gnu.property
                0x0000000000000000       0x20 /home/andrea/Desktop/Star-Os/glibc-2.38/build/libc_pic.a(errname.os)
 .note.gnu.property
                0x0000000000000000       0x20 /home/andrea/Desktop/Star-Os/glibc-2.38/build/libc_pic.a(strchrnul.os)
 .note.gnu.property
                0x0000000000000000       0x20 /home/andrea/Desktop/Star-Os/glibc-2.38/build/libc_pic.a(strchrnul-avx2.os)
 .note.gnu.property
                0x0000000000000000       0x20 /home/andrea/Desktop/Star-Os/glibc-2.38/build/libc_pic.a(strchrnul-avx2-rtm.os)
 .note.gnu.property
                0x0000000000000000       0x20 /home/andrea/Desktop/Star-Os/glibc-2.38/build/libc_pic.a(strchrnul-evex.os)
 .note.gnu.property
                0x0000000000000000       0x20 /home/andrea/Desktop/Star-Os/glibc-2.38/build/libc_pic.a(strchrnul-sse2.os)
 .note.gnu.property
                0x0000000000000000       0x20 /home/andrea/Desktop/Star-Os/glibc-2.38/build/libc_pic.a(setitimer.os)
 .note.gnu.property
                0x0000000000000000       0x20 /home/andrea/Desktop/Star-Os/glibc-2.38/build/libc_pic.a(getdents64.os)

Memory Configuration

Name             Origin             Length             Attributes
*default*        0x0000000000000000 0xffffffffffffffff

Linker script and memory map

LOAD /home/andrea/Desktop/Star-Os/glibc-2.38/build/elf/librtld.mapT.o
START GROUP
LOAD /home/andrea/Desktop/Star-Os/glibc-2.38/build/elf/dl-allobjs.os
LOAD /home/andrea/Desktop/Star-Os/glibc-2.38/build/libc_pic.a
LOAD /usr/lib/gcc/x86_64-linux-gnu/13/libgcc.a
END GROUP

.interp
 *(.interp)

.note.gnu.build-id
 *(.note.gnu.build-id)

.hash
 *(.hash)

.gnu.hash
 *(.gnu.hash)

.dynsym
 *(.dynsym)

.dynstr
 *(.dynstr)

.gnu.version
 *(.gnu.version)

.gnu.version_d
 *(.gnu.version_d)

.gnu.version_r
 *(.gnu.version_r)

.rela.init
 *(.rela.init)

.rela.text
 *(.rela.text)

.rela.fini
 *(.rela.fini)

.rela.rodata
 *(.rela.rodata)

.rela.data.rel.ro
 *(.rela.data.rel.ro)

.rela.data
 *(.rela.data)

.rela.tdata
 *(.rela.tdata)

.rela.tbss
 *(.rela.tbss)

.rela.ctors
 *(.rela.ctors)

.rela.dtors
 *(.rela.dtors)

.rela.got
 *(.rela.got)

.rela.bss
 *(.rela.bss)

.rela.ldata
 *(.rela.ldata)

.rela.lbss
 *(.rela.lbss)

.rela.lrodata
 *(.rela.lrodata)

.rela.ifunc
 *(.rela.ifunc)

.rela.plt
 *(.rela.plt)

.relr.dyn
 *(.relr.dyn)

.init
 *(SORT_NONE(.init))

.plt
 *(.plt)

.plt.got
 *(.plt.got)

.plt.sec
 *(.plt.sec)

.text           0x0000000000000000    0x26724
 *(.text .stub)
 .text          0x0000000000000000        0x0 /home/andrea/Desktop/Star-Os/glibc-2.38/build/elf/librtld.mapT.o
                0x0000000000000000                __stack_chk_fail_local
                0x0000000000000000                malloc
                0x0000000000000000                __libc_assert_fail
                0x0000000000000000                __stack_chk_fail
                0x0000000000000000                calloc
                0x0000000000000000                __GI___pthread_enable_asynccancel
                0x0000000000000000                realloc
                0x0000000000000000                __GI___pthread_disable_asynccancel
                0x0000000000000000                __pthread_enable_asynccancel
                0x0000000000000000                __pthread_disable_asynccancel
                0x0000000000000000                free
 .text          0x0000000000000000    0x1fb84 /home/andrea/Desktop/Star-Os/glibc-2.38/build/elf/dl-allobjs.os
                0x0000000000000000                _dl_call_libc_early_init
                0x0000000000000090                _dl_call_fini
                0x00000000000001e0                _dl_signal_exception
                0x00000000000001e0                __GI__dl_signal_exception
                0x0000000000000240                __GI__dl_signal_error
                0x0000000000000240                _dl_signal_error
                0x00000000000002b0                _dl_signal_cexception
                0x0000000000000340                _dl_signal_cerror
                0x00000000000003c0                _dl_receive_error
                0x0000000000000460                _dl_catch_exception
                0x0000000000000460                __GI__dl_catch_exception
                0x00000000000005e0                _dl_catch_error
                0x0000000000000740                _dl_close_worker
                0x0000000000001540                _dl_close
                0x00000000000015b0                _dl_debug_state
                0x00000000000015b0                __GI__dl_debug_state
                0x00000000000015c0                _dl_debug_update
                0x0000000000001610                _dl_debug_initialize
                0x00000000000017c0                _dl_map_object_deps
                0x0000000000002830                _dl_error_free
                0x0000000000002860                _dl_exception_create
                0x0000000000002860                __GI__dl_exception_create
                0x0000000000002930                __GI__dl_exception_create_format
                0x0000000000002930                _dl_exception_create_format
                0x0000000000002da0                _dl_exception_free
                0x0000000000002da0                __GI__dl_exception_free
                0x0000000000002dd0                _dl_make_stacks_executable
                0x0000000000002f40                __GI___nptl_change_stack_perm
                0x0000000000002f40                __nptl_change_stack_perm
                0x0000000000003180                __GI__dl_find_object
                0x0000000000003180                _dl_find_object
                0x00000000000034c0                _dlfo_sort_mappings
                0x0000000000003570                _dl_find_object_init
                0x0000000000003720                _dl_find_object_update
                0x0000000000003c20                _dl_find_object_dlclose
                0x0000000000003cf0                _dl_find_object_freeres
                0x0000000000003d60                _dl_fini
                0x0000000000004160                _dl_init
                0x00000000000051a0                _dl_dst_count
                0x0000000000005250                _dl_dst_substitute
                0x00000000000059e0                _dl_init_paths
                0x0000000000005d60                _dl_process_pt_gnu_property
                0x00000000000076e0                _dl_map_object
                0x00000000000081d0                _dl_rtld_di_serinfo
                0x00000000000091c0                _dl_lookup_symbol_x
                0x0000000000009d60                _dl_lookup_direct
                0x0000000000009f00                __minimal_malloc
                0x000000000000a020                __minimal_calloc
                0x000000000000a060                __minimal_free
                0x000000000000a0a0                __minimal_realloc
                0x000000000000a130                _dl_sysdep_read_whole_file
                0x000000000000a1c0                _dl_name_match_p
                0x000000000000a230                _dl_higher_prime_number
                0x000000000000a280                _dl_strtoul
                0x000000000000a3e0                _dl_add_to_namespace_list
                0x000000000000a480                _dl_new_object
                0x000000000000aca0                __GI__dl_find_dso_for_object
                0x000000000000aca0                _dl_find_dso_for_object
                0x000000000000ad70                _dl_open
                0x000000000000b070                _dl_show_scope
                0x000000000000bbe0                _dl_get_origin
                0x000000000000c3c0                _dl_debug_printf
                0x000000000000c470                _dl_debug_printf_c
                0x000000000000c520                _dl_dprintf
                0x000000000000c5c0                _dl_printf
                0x000000000000c670                _dl_error_printf
                0x000000000000c720                _dl_fatal_printf
                0x000000000000c720                __GI__dl_fatal_printf
                0x000000000000c7d0                _dl_start_profile
                0x000000000000cf80                __GI__dl_mcount
                0x000000000000cf80                _dl_mcount
                0x000000000000d190                _dl_try_allocate_static_tls
                0x000000000000d2b0                _dl_allocate_static_tls
                0x000000000000d2f0                _dl_protect_relro
                0x000000000000d360                _dl_reloc_bad_type
                0x000000000000d440                _dl_relocate_object
                0x000000000000f7e0                _dl_fixup
                0x000000000000faa0                _dl_profile_fixup
                0x000000000000fdf0                _dl_scope_free
                0x000000000000fec0                _dl_setup_hash
                0x0000000000010060                _dl_sort_maps_init
                0x0000000000010090                _dl_sort_maps
                0x00000000000105b0                __thread_gscope_wait
                0x0000000000010a40                _dl_tls_static_surplus_init
                0x0000000000010ae0                _dl_assign_tls_modid
                0x0000000000010bf0                _dl_count_modids
                0x0000000000010c60                _dl_determine_tlsoffset
                0x0000000000010e20                _dl_get_tls_static_info
                0x0000000000010e40                _dl_allocate_tls_storage
                0x0000000000010f10                __GI__dl_allocate_tls_init
                0x0000000000010f10                _dl_allocate_tls_init
                0x00000000000111b0                __GI__dl_allocate_tls
                0x00000000000111b0                _dl_allocate_tls
                0x00000000000111f0                _dl_deallocate_tls
                0x00000000000111f0                __GI__dl_deallocate_tls
                0x0000000000011280                _dl_update_slotinfo
                0x00000000000114e0                __GI___tls_get_addr
                0x00000000000114e0                ___tls_get_addr
                0x0000000000011520                _dl_tls_get_addr_soft
                0x00000000000115a0                _dl_add_to_slotinfo
                0x00000000000116b0                _dl_init_static_tls
                0x00000000000117e0                __tls_get_addr_slow
                0x0000000000011820                __tls_pre_init_tp
                0x0000000000011880                __tls_init_tp
                0x00000000000119c0                _dl_runtime_profile_sse
                0x0000000000011b50                _dl_runtime_resolve_fxsave
                0x0000000000011bd0                _dl_runtime_resolve_xsave
                0x0000000000011ca0                _dl_runtime_resolve_xsavec
                0x0000000000011e50                __GI___tunable_set_val
                0x0000000000011e70                __GI___tunables_init
                0x0000000000012470                __GI___tunables_print
                0x0000000000012580                __tunable_get_val
                0x0000000000012580                __GI___tunable_get_val
                0x00000000000125f0                _dl_check_map_versions
                0x0000000000012eb0                _dl_check_all_versions
                0x0000000000012f20                _dl_write
                0x0000000000012f30                _dl_cache_libcmp
                0x0000000000013720                _dl_load_cache_lookup
                0x0000000000013ab0                _dl_unload_cache
                0x0000000000013b00                _dl_make_tlsdesc_dynamic
                0x0000000000013da0                _dl_unmap
                0x0000000000013e20                _dl_tlsdesc_return
                0x0000000000013e30                _dl_tlsdesc_undefweak
                0x0000000000013e50                _dl_tlsdesc_dynamic
                0x0000000000013ef0                __tls_get_addr
                0x0000000000016220                __x86_cpu_features
                0x0000000000016250                _dl_x86_init_cpu_features
                0x0000000000016270                _dl_x86_get_cpu_features
                0x0000000000016710                _dl_cet_open_check
                0x0000000000016720                _dl_cet_check
                0x0000000000016730                _dl_audit_activity_map
                0x00000000000167c0                _dl_audit_activity_nsid
                0x0000000000016800                _dl_audit_objsearch
                0x00000000000168b0                _dl_audit_objopen
                0x0000000000016970                _dl_audit_objclose
                0x0000000000016a10                _dl_audit_preinit
                0x0000000000016a90                _dl_audit_symbind_alt
                0x0000000000016a90                __GI__dl_audit_symbind_alt
                0x0000000000016c40                _dl_audit_symbind
                0x0000000000016ef0                _dl_audit_pltenter
                0x0000000000017100                _dl_audit_pltexit
                0x00000000000172e0                _dl_diagnostics_print_string
                0x0000000000017360                _dl_diagnostics_print_labeled_string
                0x00000000000173b0                _dl_diagnostics_print_labeled_value
                0x00000000000173d0                _dl_print_diagnostics
                0x00000000000177d0                _dl_diagnostics_cpu
                0x0000000000017f10                _dl_diagnostics_kernel
                0x0000000000017fc0                _dl_next_ld_env_entry
                0x0000000000018010                unsetenv
                0x0000000000018140                _dl_important_hwcaps
                0x00000000000184d0                _dl_hwcaps_subdirs_active
                0x0000000000018590                _dl_hwcaps_split
                0x0000000000018630                _dl_hwcaps_contains
                0x00000000000186f0                _dl_hwcaps_split_masked
                0x0000000000018730                __rtld_libc_freeres
                0x0000000000018740                __rtld_malloc_init_stubs
                0x0000000000018780                __sigjmp_save
                0x0000000000018790                __strerror_r
                0x0000000000018880                __GI___libc_fatal
                0x0000000000018880                __libc_fatal
                0x00000000000188a0                __GI___chk_fail
                0x00000000000188a0                __chk_fail
                0x00000000000188c0                __GI___assert_fail
                0x00000000000188c0                __assert_fail
                0x0000000000018900                __rtld_malloc_is_complete
                0x0000000000018a10                __rtld_malloc_init_real
                0x0000000000018b00                __GI___assert_perror_fail
                0x0000000000018b00                __assert_perror_fail
                0x0000000000018b60                _itoa
                0x0000000000018bc0                __strsep
                0x0000000000018bc0                strsep
                0x0000000000018bc0                __strsep_g
                0x0000000000018c40                __rtld_mutex_init
                0x0000000000018ec0                _dl_tunable_set_hwcaps
                0x0000000000019a60                _dl_tunable_set_x86_ibt
                0x0000000000019ae0                _dl_tunable_set_x86_shstk
                0x0000000000019b60                _dl_sysdep_start
                0x0000000000019c20                _dl_sysdep_start_cleanup
                0x0000000000019c30                _dl_show_auxv
                0x0000000000019e80                _dl_usage
                0x0000000000019ed0                _dl_version
                0x0000000000019ef0                _dl_help
                0x000000000001a1b0                _start
                0x000000000001a1b8                _dl_start_user
                0x000000000001b550                handle_preload_list
                0x000000000001f310                __brk
                0x000000000001f310                brk
                0x000000000001f340                __getcwd
                0x000000000001f340                getcwd
                0x000000000001f940                openat64
                0x000000000001f9a0                __alloc_dir
                0x000000000001fa70                __opendir
                0x000000000001fa70                opendir
                0x000000000001fb00                sbrk
                0x000000000001fb00                __sbrk
 *fill*         0x000000000001fb84        0xc 
 .text          0x000000000001fb90       0xe6 /home/andrea/Desktop/Star-Os/glibc-2.38/build/libc_pic.a(check_fds.os)
                0x000000000001fc40                __libc_check_standard_fds
 .text          0x000000000001fc76        0x0 /home/andrea/Desktop/Star-Os/glibc-2.38/build/libc_pic.a(errno.os)
 *fill*         0x000000000001fc76        0xa 
 .text          0x000000000001fc80       0x72 /home/andrea/Desktop/Star-Os/glibc-2.38/build/libc_pic.a(setjmp.os)
                0x000000000001fc80                __sigsetjmp
                0x000000000001fc80                __GI___sigsetjmp
 *fill*         0x000000000001fcf2        0xe 
 .text          0x000000000001fd00       0x8e /home/andrea/Desktop/Star-Os/glibc-2.38/build/libc_pic.a(__longjmp.os)
                0x000000000001fd00                __longjmp
 *fill*         0x000000000001fd8e        0x2 
 .text          0x000000000001fd90       0xf8 /home/andrea/Desktop/Star-Os/glibc-2.38/build/libc_pic.a(lowlevellock.os)
                0x000000000001fd90                __GI___lll_lock_wait_private
                0x000000000001fd90                __lll_lock_wait_private
                0x000000000001fdf0                __lll_lock_wait
                0x000000000001fdf0                __GI___lll_lock_wait
                0x000000000001fe50                __lll_lock_wake_private
                0x000000000001fe50                __GI___lll_lock_wake_private
                0x000000000001fe70                __lll_lock_wake
                0x000000000001fe70                __GI___lll_lock_wake
 *fill*         0x000000000001fe88        0x8 
 .text          0x000000000001fe90       0xa5 /home/andrea/Desktop/Star-Os/glibc-2.38/build/libc_pic.a(scratch_buffer_set_array_size.os)
                0x000000000001fe90                __libc_scratch_buffer_set_array_size
                0x000000000001fe90                __GI___libc_scratch_buffer_set_array_size
 *fill*         0x000000000001ff35        0xb 
 .text          0x000000000001ff40       0x7d /home/andrea/Desktop/Star-Os/glibc-2.38/build/libc_pic.a(memchr.os)
                0x000000000001ff40                __GI_memchr
                0x000000000001ff40                memchr
                0x000000000001ff40                __memchr
 *fill*         0x000000000001ffbd        0x3 
 .text          0x000000000001ffc0       0x71 /home/andrea/Desktop/Star-Os/glibc-2.38/build/libc_pic.a(memcmp.os)
                0x000000000001ffc0                bcmp
                0x000000000001ffc0                __GI_memcmp
                0x000000000001ffc0                memcmp
 *fill*         0x0000000000020031        0xf 
 .text          0x0000000000020040      0x111 /home/andrea/Desktop/Star-Os/glibc-2.38/build/libc_pic.a(memcpy.os)
                0x0000000000020040                __GI_memcpy
                0x0000000000020040                __new_memcpy
                0x0000000000020040                memcpy@@GLIBC_2.14
 *fill*         0x0000000000020151        0xf 
 .text          0x0000000000020160      0x111 /home/andrea/Desktop/Star-Os/glibc-2.38/build/libc_pic.a(memmove.os)
                0x0000000000020160                memmove
                0x0000000000020160                __GI_memmove
                0x0000000000020160                __libc_memmove
 *fill*         0x0000000000020271        0xf 
 .text          0x0000000000020280      0x111 /home/andrea/Desktop/Star-Os/glibc-2.38/build/libc_pic.a(mempcpy.os)
                0x0000000000020280                mempcpy
                0x0000000000020280                __GI_mempcpy
                0x0000000000020280                __mempcpy
                0x0000000000020280                __GI___mempcpy
 *fill*         0x0000000000020391        0xf 
 .text          0x00000000000203a0       0xed /home/andrea/Desktop/Star-Os/glibc-2.38/build/libc_pic.a(memset.os)
                0x00000000000203a0                __GI_memset
                0x00000000000203a0                memset
 *fill*         0x000000000002048d        0x3 
 .text          0x0000000000020490       0x70 /home/andrea/Desktop/Star-Os/glibc-2.38/build/libc_pic.a(stpcpy.os)
                0x0000000000020490                stpcpy
                0x0000000000020490                __GI_stpcpy
                0x0000000000020490                __stpcpy
                0x0000000000020490                __GI___stpcpy
 .text          0x0000000000020500       0x78 /home/andrea/Desktop/Star-Os/glibc-2.38/build/libc_pic.a(strchr.os)
                0x0000000000020500                __GI_strchr
                0x0000000000020500                index
                0x0000000000020500                strchr
 *fill*         0x0000000000020578        0x8 
 .text          0x0000000000020580       0x88 /home/andrea/Desktop/Star-Os/glibc-2.38/build/libc_pic.a(strcmp.os)
                0x0000000000020580                __GI_strcmp
                0x0000000000020580                strcmp
 *fill*         0x0000000000020608        0x8 
 .text          0x0000000000020610       0x25 /home/andrea/Desktop/Star-Os/glibc-2.38/build/libc_pic.a(strcspn.os)
                0x0000000000020610                strcspn
                0x0000000000020610                __GI_strcspn
 *fill*         0x0000000000020635        0xb 
 .text          0x0000000000020640       0x3d /home/andrea/Desktop/Star-Os/glibc-2.38/build/libc_pic.a(strdup.os)
                0x0000000000020640                __GI___strdup
                0x0000000000020640                __strdup
                0x0000000000020640                strdup
 *fill*         0x000000000002067d        0x3 
 .text          0x0000000000020680        0x9 /home/andrea/Desktop/Star-Os/glibc-2.38/build/libc_pic.a(strerrorname_np.os)
                0x0000000000020680                strerrorname_np
 *fill*         0x0000000000020689        0x7 
 .text          0x0000000000020690       0x81 /home/andrea/Desktop/Star-Os/glibc-2.38/build/libc_pic.a(strlen.os)
                0x0000000000020690                strlen
                0x0000000000020690                __GI_strlen
 *fill*         0x0000000000020711        0xf 
 .text          0x0000000000020720       0x91 /home/andrea/Desktop/Star-Os/glibc-2.38/build/libc_pic.a(strncmp.os)
                0x0000000000020720                __GI_strncmp
                0x0000000000020720                strncmp
 *fill*         0x00000000000207b1        0xf 
 .text          0x00000000000207c0       0x81 /home/andrea/Desktop/Star-Os/glibc-2.38/build/libc_pic.a(strnlen.os)
                0x00000000000207c0                __strnlen
                0x00000000000207c0                strnlen
                0x00000000000207c0                __GI___strnlen
                0x00000000000207c0                __GI_strnlen
 .text          0x0000000000020841        0x0 /home/andrea/Desktop/Star-Os/glibc-2.38/build/libc_pic.a(memchr-avx2.os)
 .text          0x0000000000020841        0x0 /home/andrea/Desktop/Star-Os/glibc-2.38/build/libc_pic.a(memchr-avx2-rtm.os)
 .text          0x0000000000020841        0x0 /home/andrea/Desktop/Star-Os/glibc-2.38/build/libc_pic.a(memchr-evex.os)
 .text          0x0000000000020841        0x0 /home/andrea/Desktop/Star-Os/glibc-2.38/build/libc_pic.a(memchr-evex-rtm.os)
 *fill*         0x0000000000020841        0xf 
 .text          0x0000000000020850      0x323 /home/andrea/Desktop/Star-Os/glibc-2.38/build/libc_pic.a(memchr-sse2.os)
                0x0000000000020850                __memchr_sse2
 .text          0x0000000000020b73        0x0 /home/andrea/Desktop/Star-Os/glibc-2.38/build/libc_pic.a(memcmp-avx2-movbe.os)
 .text          0x0000000000020b73        0x0 /home/andrea/Desktop/Star-Os/glibc-2.38/build/libc_pic.a(memcmp-avx2-movbe-rtm.os)
 .text          0x0000000000020b73        0x0 /home/andrea/Desktop/Star-Os/glibc-2.38/build/libc_pic.a(memcmp-evex-movbe.os)
 *fill*         0x0000000000020b73        0xd 
 .text          0x0000000000020b80      0x2d0 /home/andrea/Desktop/Star-Os/glibc-2.38/build/libc_pic.a(memcmp-sse2.os)
                0x0000000000020b80                __memcmp_sse2
 .text          0x0000000000020e50        0x0 /home/andrea/Desktop/Star-Os/glibc-2.38/build/libc_pic.a(memmove-avx-unaligned-erms.os)
 .text          0x0000000000020e50        0x0 /home/andrea/Desktop/Star-Os/glibc-2.38/build/libc_pic.a(memmove-avx-unaligned-erms-rtm.os)
 .text          0x0000000000020e50        0x0 /home/andrea/Desktop/Star-Os/glibc-2.38/build/libc_pic.a(memmove-avx512-no-vzeroupper.os)
 .text          0x0000000000020e50        0x0 /home/andrea/Desktop/Star-Os/glibc-2.38/build/libc_pic.a(memmove-avx512-unaligned-erms.os)
 .text          0x0000000000020e50       0x71 /home/andrea/Desktop/Star-Os/glibc-2.38/build/libc_pic.a(memmove-erms.os)
                0x0000000000020e50                __mempcpy_chk_erms
                0x0000000000020e60                __mempcpy_erms
                0x0000000000020e80                __memcpy_chk_erms
                0x0000000000020e80                __memmove_chk_erms
                0x0000000000020e90                __memmove_erms
                0x0000000000020e90                __memcpy_erms
 .text          0x0000000000020ec1        0x0 /home/andrea/Desktop/Star-Os/glibc-2.38/build/libc_pic.a(memmove-evex-unaligned-erms.os)
 *fill*         0x0000000000020ec1       0x3f 
 .text          0x0000000000020f00      0x612 /home/andrea/Desktop/Star-Os/glibc-2.38/build/libc_pic.a(memmove-sse2-unaligned-erms.os)
                0x0000000000020f00                __mempcpy_chk_sse2_unaligned
                0x0000000000020f10                __mempcpy_sse2_unaligned
                0x0000000000020f20                __memcpy_chk_sse2_unaligned
                0x0000000000020f20                __memmove_chk_sse2_unaligned
                0x0000000000020f30                __memmove_sse2_unaligned
                0x0000000000020f30                __memcpy_sse2_unaligned
                0x0000000000020f30                memcpy@GLIBC_2.2.5
                0x0000000000020f60                __mempcpy_chk_sse2_unaligned_erms
                0x0000000000020f70                __mempcpy_sse2_unaligned_erms
                0x0000000000020f80                __memmove_chk_sse2_unaligned_erms
                0x0000000000020f80                __memcpy_chk_sse2_unaligned_erms
                0x0000000000020fc0                __memmove_sse2_unaligned_erms
                0x0000000000020fc0                __memcpy_sse2_unaligned_erms
 .text          0x0000000000021512        0x0 /home/andrea/Desktop/Star-Os/glibc-2.38/build/libc_pic.a(memmove-ssse3.os)
 .text          0x0000000000021512        0x0 /home/andrea/Desktop/Star-Os/glibc-2.38/build/libc_pic.a(memset-avx2-unaligned-erms.os)
 .text          0x0000000000021512        0x0 /home/andrea/Desktop/Star-Os/glibc-2.38/build/libc_pic.a(memset-avx2-unaligned-erms-rtm.os)
 .text          0x0000000000021512        0x0 /home/andrea/Desktop/Star-Os/glibc-2.38/build/libc_pic.a(memset-avx512-no-vzeroupper.os)
 .text          0x0000000000021512        0x0 /home/andrea/Desktop/Star-Os/glibc-2.38/build/libc_pic.a(memset-avx512-unaligned-erms.os)
 *fill*         0x0000000000021512        0xe 
 .text          0x0000000000021520       0x2d /home/andrea/Desktop/Star-Os/glibc-2.38/build/libc_pic.a(memset-erms.os)
                0x0000000000021520                __memset_chk_erms
                0x0000000000021530                __memset_erms
 .text          0x000000000002154d        0x0 /home/andrea/Desktop/Star-Os/glibc-2.38/build/libc_pic.a(memset-evex-unaligned-erms.os)
 *fill*         0x000000000002154d       0x33 
 .text          0x0000000000021580      0x1b9 /home/andrea/Desktop/Star-Os/glibc-2.38/build/libc_pic.a(memset-sse2-unaligned-erms.os)
                0x0000000000021580                __wmemset_chk_sse2_unaligned
                0x0000000000021590                __wmemset_sse2_unaligned
                0x00000000000215b0                __memset_chk_sse2_unaligned
                0x00000000000215c0                __memset_sse2_unaligned
                0x0000000000021600                __memset_chk_sse2_unaligned_erms
                0x0000000000021640                __memset_sse2_unaligned_erms
 .text          0x0000000000021739        0x0 /home/andrea/Desktop/Star-Os/glibc-2.38/build/libc_pic.a(stpcpy-avx2.os)
 .text          0x0000000000021739        0x0 /home/andrea/Desktop/Star-Os/glibc-2.38/build/libc_pic.a(stpcpy-avx2-rtm.os)
 .text          0x0000000000021739        0x0 /home/andrea/Desktop/Star-Os/glibc-2.38/build/libc_pic.a(stpcpy-evex.os)
 *fill*         0x0000000000021739        0x7 
 .text          0x0000000000021740       0xec /home/andrea/Desktop/Star-Os/glibc-2.38/build/libc_pic.a(stpcpy-sse2.os)
                0x0000000000021740                __stpcpy_sse2
 *fill*         0x000000000002182c        0x4 
 .text          0x0000000000021830      0x6c0 /home/andrea/Desktop/Star-Os/glibc-2.38/build/libc_pic.a(stpcpy-sse2-unaligned.os)
                0x0000000000021830                __stpcpy_sse2_unaligned
 .text          0x0000000000021ef0        0x0 /home/andrea/Desktop/Star-Os/glibc-2.38/build/libc_pic.a(strchr-avx2.os)
 .text          0x0000000000021ef0        0x0 /home/andrea/Desktop/Star-Os/glibc-2.38/build/libc_pic.a(strchr-avx2-rtm.os)
 .text          0x0000000000021ef0        0x0 /home/andrea/Desktop/Star-Os/glibc-2.38/build/libc_pic.a(strchr-evex.os)
 .text          0x0000000000021ef0      0x22a /home/andrea/Desktop/Star-Os/glibc-2.38/build/libc_pic.a(strchr-sse2.os)
                0x0000000000021ef0                __strchr_sse2
 .text          0x000000000002211a        0x0 /home/andrea/Desktop/Star-Os/glibc-2.38/build/libc_pic.a(strchr-sse2-no-bsf.os)
 .text          0x000000000002211a        0x0 /home/andrea/Desktop/Star-Os/glibc-2.38/build/libc_pic.a(strcmp-avx2.os)
 .text          0x000000000002211a        0x0 /home/andrea/Desktop/Star-Os/glibc-2.38/build/libc_pic.a(strcmp-avx2-rtm.os)
 .text          0x000000000002211a        0x0 /home/andrea/Desktop/Star-Os/glibc-2.38/build/libc_pic.a(strcmp-evex.os)
 *fill*         0x000000000002211a        0x6 
 .text          0x0000000000022120     0x1449 /home/andrea/Desktop/Star-Os/glibc-2.38/build/libc_pic.a(strcmp-sse2.os)
                0x0000000000022120                __strcmp_sse2
 *fill*         0x0000000000023569        0x7 
 .text          0x0000000000023570      0x2a3 /home/andrea/Desktop/Star-Os/glibc-2.38/build/libc_pic.a(strcmp-sse2-unaligned.os)
                0x0000000000023570                __strcmp_sse2_unaligned
 .text          0x0000000000023813        0x0 /home/andrea/Desktop/Star-Os/glibc-2.38/build/libc_pic.a(strcmp-sse4_2.os)
 .text          0x0000000000023813        0x0 /home/andrea/Desktop/Star-Os/glibc-2.38/build/libc_pic.a(strcspn-sse4.os)
 .text          0x0000000000023813        0x0 /home/andrea/Desktop/Star-Os/glibc-2.38/build/libc_pic.a(strlen-avx2.os)
 .text          0x0000000000023813        0x0 /home/andrea/Desktop/Star-Os/glibc-2.38/build/libc_pic.a(strlen-avx2-rtm.os)
 .text          0x0000000000023813        0x0 /home/andrea/Desktop/Star-Os/glibc-2.38/build/libc_pic.a(strlen-evex.os)
 *fill*         0x0000000000023813        0xd 
 .text          0x0000000000023820      0x19c /home/andrea/Desktop/Star-Os/glibc-2.38/build/libc_pic.a(strlen-sse2.os)
                0x0000000000023820                __strlen_sse2
 .text          0x00000000000239bc        0x0 /home/andrea/Desktop/Star-Os/glibc-2.38/build/libc_pic.a(strncmp-avx2.os)
 .text          0x00000000000239bc        0x0 /home/andrea/Desktop/Star-Os/glibc-2.38/build/libc_pic.a(strncmp-avx2-rtm.os)
 .text          0x00000000000239bc        0x0 /home/andrea/Desktop/Star-Os/glibc-2.38/build/libc_pic.a(strncmp-evex.os)
 *fill*         0x00000000000239bc        0x4 
 .text          0x00000000000239c0     0x1859 /home/andrea/Desktop/Star-Os/glibc-2.38/build/libc_pic.a(strncmp-sse2.os)
                0x00000000000239c0                __strncmp_sse2
 .text          0x0000000000025219        0x0 /home/andrea/Desktop/Star-Os/glibc-2.38/build/libc_pic.a(strncmp-sse4_2.os)
 .text          0x0000000000025219        0x0 /home/andrea/Desktop/Star-Os/glibc-2.38/build/libc_pic.a(strnlen-avx2.os)
 .text          0x0000000000025219        0x0 /home/andrea/Desktop/Star-Os/glibc-2.38/build/libc_pic.a(strnlen-avx2-rtm.os)
 .text          0x0000000000025219        0x0 /home/andrea/Desktop/Star-Os/glibc-2.38/build/libc_pic.a(strnlen-evex.os)
 *fill*         0x0000000000025219        0x7 
 .text          0x0000000000025220      0x218 /home/andrea/Desktop/Star-Os/glibc-2.38/build/libc_pic.a(strnlen-sse2.os)
                0x0000000000025220                __strnlen_sse2
 .text          0x0000000000025438        0x0 /home/andrea/Desktop/Star-Os/glibc-2.38/build/libc_pic.a(varshift.os)
 *fill*         0x0000000000025438        0x8 
 .text          0x0000000000025440      0x167 /home/andrea/Desktop/Star-Os/glibc-2.38/build/libc_pic.a(strcspn-generic.os)
                0x0000000000025440                __strcspn_generic
 *fill*         0x00000000000255a7        0x9 
 .text          0x00000000000255b0      0x198 /home/andrea/Desktop/Star-Os/glibc-2.38/build/libc_pic.a(cacheinfo.os)
                0x00000000000255b0                __x86_cacheinfo
                0x0000000000025650                __cache_sysconf
 *fill*         0x0000000000025748        0x8 
 .text          0x0000000000025750       0x2d /home/andrea/Desktop/Star-Os/glibc-2.38/build/libc_pic.a(closedir.os)
                0x0000000000025750                __closedir
                0x0000000000025750                closedir
 *fill*         0x000000000002577d        0x3 
 .text          0x0000000000025780       0x76 /home/andrea/Desktop/Star-Os/glibc-2.38/build/libc_pic.a(rewinddir.os)
                0x0000000000025780                rewinddir
                0x0000000000025780                __rewinddir
                0x0000000000025780                __GI___rewinddir
 *fill*         0x00000000000257f6        0xa 
 .text          0x0000000000025800       0xd4 /home/andrea/Desktop/Star-Os/glibc-2.38/build/libc_pic.a(readdir64.os)
                0x0000000000025800                readdir
                0x0000000000025800                __readdir64
                0x0000000000025800                __readdir
                0x0000000000025800                __GI___readdir64
                0x0000000000025800                readdir64
 *fill*         0x00000000000258d4        0xc 
 .text          0x00000000000258e0       0x92 /home/andrea/Desktop/Star-Os/glibc-2.38/build/libc_pic.a(fdopendir.os)
                0x00000000000258e0                fdopendir
                0x00000000000258e0                __fdopendir
 *fill*         0x0000000000025972        0xe 
 .text          0x0000000000025980       0x2c /home/andrea/Desktop/Star-Os/glibc-2.38/build/libc_pic.a(_exit.os)
                0x0000000000025980                _Exit
                0x0000000000025980                __GI__exit
                0x0000000000025980                _exit
 *fill*         0x00000000000259ac        0x4 
 .text          0x00000000000259b0        0xc /home/andrea/Desktop/Star-Os/glibc-2.38/build/libc_pic.a(getpid.os)
                0x00000000000259b0                __getpid
                0x00000000000259b0                getpid
                0x00000000000259b0                __GI_getpid
                0x00000000000259b0                __GI___getpid
 *fill*         0x00000000000259bc        0x4 
 .text          0x00000000000259c0       0x25 /home/andrea/Desktop/Star-Os/glibc-2.38/build/libc_pic.a(uname.os)
                0x00000000000259c0                uname
                0x00000000000259c0                __GI_uname
                0x00000000000259c0                __uname
                0x00000000000259c0                __GI___uname
 .text          0x00000000000259e5        0x0 /home/andrea/Desktop/Star-Os/glibc-2.38/build/libc_pic.a(environ.os)
 *fill*         0x00000000000259e5        0xb 
 .text          0x00000000000259f0       0x2a /home/andrea/Desktop/Star-Os/glibc-2.38/build/libc_pic.a(access.os)
                0x00000000000259f0                __GI___access
                0x00000000000259f0                access
                0x00000000000259f0                __access
 *fill*         0x0000000000025a1a        0x6 
 .text          0x0000000000025a20       0x34 /home/andrea/Desktop/Star-Os/glibc-2.38/build/libc_pic.a(fstat64.os)
                0x0000000000025a20                __GI___fstat64
                0x0000000000025a20                fstat64
                0x0000000000025a20                fstat
                0x0000000000025a20                __fstat64
                0x0000000000025a20                __fstat
 *fill*         0x0000000000025a54        0xc 
 .text          0x0000000000025a60       0x32 /home/andrea/Desktop/Star-Os/glibc-2.38/build/libc_pic.a(fstatat64.os)
                0x0000000000025a60                fstatat
                0x0000000000025a60                __fstatat
                0x0000000000025a60                fstatat64
                0x0000000000025a60                __fstatat64
                0x0000000000025a60                __GI___fstatat
                0x0000000000025a60                __GI___fstatat64
 *fill*         0x0000000000025a92        0xe 
 .text          0x0000000000025aa0       0x2c /home/andrea/Desktop/Star-Os/glibc-2.38/build/libc_pic.a(lseek64.os)
                0x0000000000025aa0                __GI___lseek
                0x0000000000025aa0                __lseek64
                0x0000000000025aa0                lseek
                0x0000000000025aa0                __libc_lseek64
                0x0000000000025aa0                llseek@GLIBC_2.2.5
                0x0000000000025aa0                __lseek
                0x0000000000025aa0                __libc_lseek
                0x0000000000025aa0                lseek64
 *fill*         0x0000000000025acc        0x4 
 .text          0x0000000000025ad0       0x19 /home/andrea/Desktop/Star-Os/glibc-2.38/build/libc_pic.a(lstat64.os)
                0x0000000000025ad0                __lstat64
                0x0000000000025ad0                lstat
                0x0000000000025ad0                lstat64
                0x0000000000025ad0                __GI___lstat64
                0x0000000000025ad0                __lstat
 *fill*         0x0000000000025ae9        0x7 
 .text          0x0000000000025af0       0xf3 /home/andrea/Desktop/Star-Os/glibc-2.38/build/libc_pic.a(openat64.os)
                0x0000000000025af0                __openat64
                0x0000000000025af0                __GI___openat
                0x0000000000025af0                __GI___openat64
                0x0000000000025af0                __libc_openat64
                0x0000000000025af0                __openat
                0x0000000000025af0                openat
 *fill*         0x0000000000025be3        0xd 
 .text          0x0000000000025bf0       0x16 /home/andrea/Desktop/Star-Os/glibc-2.38/build/libc_pic.a(stat64.os)
                0x0000000000025bf0                stat64
                0x0000000000025bf0                __stat
                0x0000000000025bf0                __stat64
                0x0000000000025bf0                stat
                0x0000000000025bf0                __GI___stat64
 *fill*         0x0000000000025c06        0xa 
 .text          0x0000000000025c10       0x2a /home/andrea/Desktop/Star-Os/glibc-2.38/build/libc_pic.a(close_nocancel.os)
                0x0000000000025c10                __GI___close_nocancel
                0x0000000000025c10                __close_nocancel
 *fill*         0x0000000000025c3a        0x6 
 .text          0x0000000000025c40       0xde /home/andrea/Desktop/Star-Os/glibc-2.38/build/libc_pic.a(fcntl_nocancel.os)
                0x0000000000025c40                __fcntl64_nocancel
                0x0000000000025c40                __GI___fcntl64_nocancel
                0x0000000000025cc0                __fcntl64_nocancel_adjusted
 *fill*         0x0000000000025d1e        0x2 
 .text          0x0000000000025d20       0x7a /home/andrea/Desktop/Star-Os/glibc-2.38/build/libc_pic.a(open64_nocancel.os)
                0x0000000000025d20                __GI___open_nocancel
                0x0000000000025d20                __open_nocancel
                0x0000000000025d20                __GI___open64_nocancel
                0x0000000000025d20                __open64_nocancel
 *fill*         0x0000000000025d9a        0x6 
 .text          0x0000000000025da0       0x34 /home/andrea/Desktop/Star-Os/glibc-2.38/build/libc_pic.a(pread64_nocancel.os)
                0x0000000000025da0                __GI___pread64_nocancel
                0x0000000000025da0                __pread64_nocancel
 *fill*         0x0000000000025dd4        0xc 
 .text          0x0000000000025de0       0x2c /home/andrea/Desktop/Star-Os/glibc-2.38/build/libc_pic.a(read_nocancel.os)
                0x0000000000025de0                __read_nocancel
                0x0000000000025de0                __GI___read_nocancel
 *fill*         0x0000000000025e0c        0x4 
 .text          0x0000000000025e10       0x2c /home/andrea/Desktop/Star-Os/glibc-2.38/build/libc_pic.a(write_nocancel.os)
                0x0000000000025e10                __GI___write_nocancel
                0x0000000000025e10                __write_nocancel
 *fill*         0x0000000000025e3c        0x4 
 .text          0x0000000000025e40       0xb8 /home/andrea/Desktop/Star-Os/glibc-2.38/build/libc_pic.a(mmap64.os)
                0x0000000000025e40                __GI___mmap
                0x0000000000025e40                __mmap
                0x0000000000025e40                mmap
                0x0000000000025e40                __GI___mmap64
                0x0000000000025e40                __mmap64
                0x0000000000025e40                mmap64
 *fill*         0x0000000000025ef8        0x8 
 .text          0x0000000000025f00       0x25 /home/andrea/Desktop/Star-Os/glibc-2.38/build/libc_pic.a(mprotect.os)
                0x0000000000025f00                __mprotect
                0x0000000000025f00                __GI___mprotect
                0x0000000000025f00                __GI_mprotect
                0x0000000000025f00                mprotect
 *fill*         0x0000000000025f25        0xb 
 .text          0x0000000000025f30       0x25 /home/andrea/Desktop/Star-Os/glibc-2.38/build/libc_pic.a(munmap.os)
                0x0000000000025f30                munmap
                0x0000000000025f30                __GI___munmap
                0x0000000000025f30                __GI_munmap
                0x0000000000025f30                __munmap
 .text          0x0000000000025f55        0x0 /home/andrea/Desktop/Star-Os/glibc-2.38/build/libc_pic.a(single_threaded.os)
 *fill*         0x0000000000025f55        0xb 
 .text          0x0000000000025f60      0x1e2 /home/andrea/Desktop/Star-Os/glibc-2.38/build/libc_pic.a(profil.os)
                0x0000000000025fb0                __profil
                0x0000000000025fb0                profil
 *fill*         0x0000000000026142        0xe 
 .text          0x0000000000026150        0xf /home/andrea/Desktop/Star-Os/glibc-2.38/build/libc_pic.a(prof-freq.os)
                0x0000000000026150                __GI___profile_frequency
                0x0000000000026150                __profile_frequency
 *fill*         0x000000000002615f        0x1 
 .text          0x0000000000026160       0x7b /home/andrea/Desktop/Star-Os/glibc-2.38/build/libc_pic.a(dl-addr-obj.os)
                0x0000000000026160                _dl_addr_inside_object
 *fill*         0x00000000000261db        0x5 
 .text          0x00000000000261e0       0x34 /home/andrea/Desktop/Star-Os/glibc-2.38/build/libc_pic.a(sigaction.os)
                0x00000000000261e0                sigaction
                0x00000000000261e0                __GI___sigaction
                0x00000000000261e0                __sigaction
 *fill*         0x0000000000026214        0xc 
 .text          0x0000000000026220      0x1bb /home/andrea/Desktop/Star-Os/glibc-2.38/build/libc_pic.a(libc_sigaction.os)
                0x0000000000026240                __libc_sigaction
                0x0000000000026240                __GI___libc_sigaction
 *fill*         0x00000000000263db        0x5 
 .text          0x00000000000263e0       0x33 /home/andrea/Desktop/Star-Os/glibc-2.38/build/libc_pic.a(errname.os)
                0x00000000000263e0                __get_errname
 *fill*         0x0000000000026413        0xd 
 .text          0x0000000000026420       0x81 /home/andrea/Desktop/Star-Os/glibc-2.38/build/libc_pic.a(strchrnul.os)
                0x0000000000026420                __GI___strchrnul
                0x0000000000026420                __strchrnul
                0x0000000000026420                strchrnul
 .text          0x00000000000264a1        0x0 /home/andrea/Desktop/Star-Os/glibc-2.38/build/libc_pic.a(strchrnul-avx2.os)
 .text          0x00000000000264a1        0x0 /home/andrea/Desktop/Star-Os/glibc-2.38/build/libc_pic.a(strchrnul-avx2-rtm.os)
 .text          0x00000000000264a1        0x0 /home/andrea/Desktop/Star-Os/glibc-2.38/build/libc_pic.a(strchrnul-evex.os)
 *fill*         0x00000000000264a1        0xf 
 .text          0x00000000000264b0      0x20a /home/andrea/Desktop/Star-Os/glibc-2.38/build/libc_pic.a(strchrnul-sse2.os)
                0x00000000000264b0                __strchrnul_sse2
 *fill*         0x00000000000266ba        0x6 
 .text          0x00000000000266c0       0x2a /home/andrea/Desktop/Star-Os/glibc-2.38/build/libc_pic.a(setitimer.os)
                0x00000000000266c0                setitimer
                0x00000000000266c0                __setitimer
 *fill*         0x00000000000266ea        0x6 
 .text          0x00000000000266f0       0x34 /home/andrea/Desktop/Star-Os/glibc-2.38/build/libc_pic.a(getdents64.os)
                0x00000000000266f0                __getdents
                0x00000000000266f0                __GI___getdents64
                0x00000000000266f0                getdents64
                0x00000000000266f0                __getdents64
 *(.gnu.warning)

.text.evex512   0x0000000000000000      0xe68
 .text.evex512  0x0000000000000000      0x3fd /home/andrea/Desktop/Star-Os/glibc-2.38/build/elf/dl-allobjs.os
                0x0000000000000000                _dl_runtime_profile_avx512
 *fill*         0x00000000000003fd        0x3 
 .text.evex512  0x0000000000000400      0x880 /home/andrea/Desktop/Star-Os/glibc-2.38/build/libc_pic.a(memmove-avx512-unaligned-erms.os)
                0x0000000000000400                __mempcpy_chk_avx512_unaligned
                0x0000000000000410                __mempcpy_avx512_unaligned
                0x0000000000000420                __memcpy_chk_avx512_unaligned
                0x0000000000000420                __memmove_chk_avx512_unaligned
                0x0000000000000430                __memmove_avx512_unaligned
                0x0000000000000430                __memcpy_avx512_unaligned
                0x0000000000000470                __mempcpy_chk_avx512_unaligned_erms
                0x0000000000000480                __mempcpy_avx512_unaligned_erms
                0x0000000000000490                __memcpy_chk_avx512_unaligned_erms
                0x0000000000000490                __memmove_chk_avx512_unaligned_erms
                0x00000000000004c0                __memmove_avx512_unaligned_erms
                0x00000000000004c0                __memcpy_avx512_unaligned_erms
 .text.evex512  0x0000000000000c80      0x1e8 /home/andrea/Desktop/Star-Os/glibc-2.38/build/libc_pic.a(memset-avx512-unaligned-erms.os)
                0x0000000000000c80                __wmemset_chk_avx512_unaligned
                0x0000000000000c90                __wmemset_avx512_unaligned
                0x0000000000000cb0                __memset_chk_avx512_unaligned
                0x0000000000000cc0                __memset_avx512_unaligned
                0x0000000000000cf0                __memset_chk_avx512_unaligned_erms
                0x0000000000000d00                __memset_avx512_unaligned_erms

.text.avx       0x0000000000000000     0x2b24
 .text.avx      0x0000000000000000      0x3ef /home/andrea/Desktop/Star-Os/glibc-2.38/build/elf/dl-allobjs.os
                0x0000000000000000                _dl_runtime_profile_avx
 *fill*         0x00000000000003ef       0x11 
 .text.avx      0x0000000000000400      0x297 /home/andrea/Desktop/Star-Os/glibc-2.38/build/libc_pic.a(memchr-avx2.os)
                0x0000000000000400                __memchr_avx2
 *fill*         0x0000000000000697        0x9 
 .text.avx      0x00000000000006a0      0x3ff /home/andrea/Desktop/Star-Os/glibc-2.38/build/libc_pic.a(memcmp-avx2-movbe.os)
                0x00000000000006a0                __memcmp_avx2_movbe
 *fill*         0x0000000000000a9f       0x21 
 .text.avx      0x0000000000000ac0      0x79e /home/andrea/Desktop/Star-Os/glibc-2.38/build/libc_pic.a(memmove-avx-unaligned-erms.os)
                0x0000000000000ac0                __mempcpy_chk_avx_unaligned
                0x0000000000000ad0                __mempcpy_avx_unaligned
                0x0000000000000ae0                __memcpy_chk_avx_unaligned
                0x0000000000000ae0                __memmove_chk_avx_unaligned
                0x0000000000000af0                __memcpy_avx_unaligned
                0x0000000000000af0                __memmove_avx_unaligned
                0x0000000000000b30                __mempcpy_chk_avx_unaligned_erms
                0x0000000000000b40                __mempcpy_avx_unaligned_erms
                0x0000000000000b50                __memmove_chk_avx_unaligned_erms
                0x0000000000000b50                __memcpy_chk_avx_unaligned_erms
                0x0000000000000b80                __memcpy_avx_unaligned_erms
                0x0000000000000b80                __memmove_avx_unaligned_erms
 *fill*         0x000000000000125e       0x22 
 .text.avx      0x0000000000001280      0x1fd /home/andrea/Desktop/Star-Os/glibc-2.38/build/libc_pic.a(memset-avx2-unaligned-erms.os)
                0x0000000000001280                __wmemset_chk_avx2_unaligned
                0x0000000000001290                __wmemset_avx2_unaligned
                0x00000000000012c0                __memset_chk_avx2_unaligned
                0x00000000000012d0                __memset_avx2_unaligned
                0x0000000000001310                __memset_chk_avx2_unaligned_erms
                0x0000000000001340                __memset_avx2_unaligned_erms
 *fill*         0x000000000000147d        0x3 
 .text.avx      0x0000000000001480      0x251 /home/andrea/Desktop/Star-Os/glibc-2.38/build/libc_pic.a(stpcpy-avx2.os)
                0x0000000000001480                __stpcpy_avx2
 *fill*         0x00000000000016d1        0xf 
 .text.avx      0x00000000000016e0      0x23c /home/andrea/Desktop/Star-Os/glibc-2.38/build/libc_pic.a(strchr-avx2.os)
                0x00000000000016e0                __strchr_avx2
 *fill*         0x000000000000191c        0x4 
 .text.avx      0x0000000000001920      0x555 /home/andrea/Desktop/Star-Os/glibc-2.38/build/libc_pic.a(strcmp-avx2.os)
                0x0000000000001920                __strcmp_avx2
 *fill*         0x0000000000001e75        0xb 
 .text.avx      0x0000000000001e80      0x172 /home/andrea/Desktop/Star-Os/glibc-2.38/build/libc_pic.a(strlen-avx2.os)
                0x0000000000001e80                __strlen_avx2
 *fill*         0x0000000000001ff2        0xe 
 .text.avx      0x0000000000002000      0x64e /home/andrea/Desktop/Star-Os/glibc-2.38/build/libc_pic.a(strncmp-avx2.os)
                0x0000000000002000                __strncmp_avx2
 *fill*         0x000000000000264e       0x12 
 .text.avx      0x0000000000002660      0x2ce /home/andrea/Desktop/Star-Os/glibc-2.38/build/libc_pic.a(strnlen-avx2.os)
                0x0000000000002660                __strnlen_avx2
 *fill*         0x000000000000292e       0x12 
 .text.avx      0x0000000000002940      0x1e4 /home/andrea/Desktop/Star-Os/glibc-2.38/build/libc_pic.a(strchrnul-avx2.os)
                0x0000000000002940                __strchrnul_avx2

.text.compat    0x0000000000000000        0x5
 .text.compat   0x0000000000000000        0x5 /home/andrea/Desktop/Star-Os/glibc-2.38/build/elf/dl-allobjs.os
                0x0000000000000000                __rtld_version_placeholder_1
                0x0000000000000000                __rtld_version_placeholder@GLIBC_2.34

.text.avx.rtm   0x0000000000000000     0x2765
 .text.avx.rtm  0x0000000000000000      0x2b8 /home/andrea/Desktop/Star-Os/glibc-2.38/build/libc_pic.a(memchr-avx2-rtm.os)
                0x0000000000000000                __memchr_avx2_rtm
 *fill*         0x00000000000002b8        0x8 
 .text.avx.rtm  0x00000000000002c0      0x3ff /home/andrea/Desktop/Star-Os/glibc-2.38/build/libc_pic.a(memcmp-avx2-movbe-rtm.os)
                0x00000000000002c0                __memcmp_avx2_movbe_rtm
 *fill*         0x00000000000006bf        0x1 
 .text.avx.rtm  0x00000000000006c0      0x79f /home/andrea/Desktop/Star-Os/glibc-2.38/build/libc_pic.a(memmove-avx-unaligned-erms-rtm.os)
                0x00000000000006c0                __mempcpy_chk_avx_unaligned_rtm
                0x00000000000006d0                __mempcpy_avx_unaligned_rtm
                0x00000000000006e0                __memmove_chk_avx_unaligned_rtm
                0x00000000000006e0                __memcpy_chk_avx_unaligned_rtm
                0x00000000000006f0                __memcpy_avx_unaligned_rtm
                0x00000000000006f0                __memmove_avx_unaligned_rtm
                0x0000000000000730                __mempcpy_chk_avx_unaligned_erms_rtm
                0x0000000000000740                __mempcpy_avx_unaligned_erms_rtm
                0x0000000000000750                __memcpy_chk_avx_unaligned_erms_rtm
                0x0000000000000750                __memmove_chk_avx_unaligned_erms_rtm
                0x0000000000000780                __memmove_avx_unaligned_erms_rtm
                0x0000000000000780                __memcpy_avx_unaligned_erms_rtm
 *fill*         0x0000000000000e5f       0x21 
 .text.avx.rtm  0x0000000000000e80      0x1fd /home/andrea/Desktop/Star-Os/glibc-2.38/build/libc_pic.a(memset-avx2-unaligned-erms-rtm.os)
                0x0000000000000e80                __wmemset_chk_avx2_unaligned_rtm
                0x0000000000000e90                __wmemset_avx2_unaligned_rtm
                0x0000000000000ec0                __memset_chk_avx2_unaligned_rtm
                0x0000000000000ed0                __memset_avx2_unaligned_rtm
                0x0000000000000f10                __memset_chk_avx2_unaligned_erms_rtm
                0x0000000000000f40                __memset_avx2_unaligned_erms_rtm
 *fill*         0x000000000000107d        0x3 
 .text.avx.rtm  0x0000000000001080      0x24d /home/andrea/Desktop/Star-Os/glibc-2.38/build/libc_pic.a(stpcpy-avx2-rtm.os)
                0x0000000000001080                __stpcpy_avx2_rtm
 *fill*         0x00000000000012cd       0x13 
 .text.avx.rtm  0x00000000000012e0      0x22f /home/andrea/Desktop/Star-Os/glibc-2.38/build/libc_pic.a(strchr-avx2-rtm.os)
                0x00000000000012e0                __strchr_avx2_rtm
 *fill*         0x000000000000150f        0x1 
 .text.avx.rtm  0x0000000000001510      0x555 /home/andrea/Desktop/Star-Os/glibc-2.38/build/libc_pic.a(strcmp-avx2-rtm.os)
                0x0000000000001510                __strcmp_avx2_rtm
 *fill*         0x0000000000001a65       0x1b 
 .text.avx.rtm  0x0000000000001a80      0x16b /home/andrea/Desktop/Star-Os/glibc-2.38/build/libc_pic.a(strlen-avx2-rtm.os)
                0x0000000000001a80                __strlen_avx2_rtm
 *fill*         0x0000000000001beb        0x5 
 .text.avx.rtm  0x0000000000001bf0      0x67e /home/andrea/Desktop/Star-Os/glibc-2.38/build/libc_pic.a(strncmp-avx2-rtm.os)
                0x0000000000001bf0                __strncmp_avx2_rtm
 *fill*         0x000000000000226e       0x12 
 .text.avx.rtm  0x0000000000002280      0x2fc /home/andrea/Desktop/Star-Os/glibc-2.38/build/libc_pic.a(strnlen-avx2-rtm.os)
                0x0000000000002280                __strnlen_avx2_rtm
 *fill*         0x000000000000257c        0x4 
 .text.avx.rtm  0x0000000000002580      0x1e5 /home/andrea/Desktop/Star-Os/glibc-2.38/build/libc_pic.a(strchrnul-avx2-rtm.os)
                0x0000000000002580                __strchrnul_avx2_rtm

.text.evex      0x0000000000000000     0x2657
 .text.evex     0x0000000000000000      0x24f /home/andrea/Desktop/Star-Os/glibc-2.38/build/libc_pic.a(memchr-evex.os)
                0x0000000000000000                __memchr_evex
 *fill*         0x000000000000024f       0x31 
 .text.evex     0x0000000000000280      0x2fe /home/andrea/Desktop/Star-Os/glibc-2.38/build/libc_pic.a(memcmp-evex-movbe.os)
                0x0000000000000280                __memcmp_evex_movbe
 *fill*         0x000000000000057e        0x2 
 .text.evex     0x0000000000000580      0x87b /home/andrea/Desktop/Star-Os/glibc-2.38/build/libc_pic.a(memmove-evex-unaligned-erms.os)
                0x0000000000000580                __mempcpy_chk_evex_unaligned
                0x0000000000000590                __mempcpy_evex_unaligned
                0x00000000000005a0                __memcpy_chk_evex_unaligned
                0x00000000000005a0                __memmove_chk_evex_unaligned
                0x00000000000005b0                __memmove_evex_unaligned
                0x00000000000005b0                __memcpy_evex_unaligned
                0x00000000000005f0                __mempcpy_chk_evex_unaligned_erms
                0x0000000000000600                __mempcpy_evex_unaligned_erms
                0x0000000000000610                __memcpy_chk_evex_unaligned_erms
                0x0000000000000610                __memmove_chk_evex_unaligned_erms
                0x0000000000000640                __memmove_evex_unaligned_erms
                0x0000000000000640                __memcpy_evex_unaligned_erms
 *fill*         0x0000000000000dfb        0x5 
 .text.evex     0x0000000000000e00      0x1c8 /home/andrea/Desktop/Star-Os/glibc-2.38/build/libc_pic.a(memset-evex-unaligned-erms.os)
                0x0000000000000e00                __wmemset_chk_evex_unaligned
                0x0000000000000e10                __wmemset_evex_unaligned
                0x0000000000000e30                __memset_chk_evex_unaligned
                0x0000000000000e40                __memset_evex_unaligned
                0x0000000000000e70                __memset_chk_evex_unaligned_erms
                0x0000000000000e80                __memset_evex_unaligned_erms
 *fill*         0x0000000000000fc8        0x8 
 .text.evex     0x0000000000000fd0      0x2e0 /home/andrea/Desktop/Star-Os/glibc-2.38/build/libc_pic.a(stpcpy-evex.os)
                0x0000000000000fd0                __stpcpy_evex
 *fill*         0x00000000000012b0       0x10 
 .text.evex     0x00000000000012c0      0x1ff /home/andrea/Desktop/Star-Os/glibc-2.38/build/libc_pic.a(strchr-evex.os)
                0x00000000000012c0                __strchr_evex
 *fill*         0x00000000000014bf        0x1 
 .text.evex     0x00000000000014c0      0x553 /home/andrea/Desktop/Star-Os/glibc-2.38/build/libc_pic.a(strcmp-evex.os)
                0x00000000000014c0                __strcmp_evex
 *fill*         0x0000000000001a13       0x2d 
 .text.evex     0x0000000000001a40      0x15d /home/andrea/Desktop/Star-Os/glibc-2.38/build/libc_pic.a(strlen-evex.os)
                0x0000000000001a40                __strlen_evex
 *fill*         0x0000000000001b9d        0x3 
 .text.evex     0x0000000000001ba0      0x66c /home/andrea/Desktop/Star-Os/glibc-2.38/build/libc_pic.a(strncmp-evex.os)
                0x0000000000001ba0                __strncmp_evex
 *fill*         0x000000000000220c       0x34 
 .text.evex     0x0000000000002240      0x217 /home/andrea/Desktop/Star-Os/glibc-2.38/build/libc_pic.a(strnlen-evex.os)
                0x0000000000002240                __strnlen_evex
 *fill*         0x0000000000002457       0x29 
 .text.evex     0x0000000000002480      0x1d7 /home/andrea/Desktop/Star-Os/glibc-2.38/build/libc_pic.a(strchrnul-evex.os)
                0x0000000000002480                __strchrnul_evex

.text.evex.rtm  0x0000000000000000      0x24f
 .text.evex.rtm
                0x0000000000000000      0x24f /home/andrea/Desktop/Star-Os/glibc-2.38/build/libc_pic.a(memchr-evex-rtm.os)
                0x0000000000000000                __memchr_evex_rtm

.text.avx512    0x0000000000000000      0x9f4
 .text.avx512   0x0000000000000000      0x76f /home/andrea/Desktop/Star-Os/glibc-2.38/build/libc_pic.a(memmove-avx512-no-vzeroupper.os)
                0x0000000000000000                __mempcpy_chk_avx512_no_vzeroupper
                0x0000000000000010                __mempcpy_avx512_no_vzeroupper
                0x0000000000000020                __memcpy_chk_avx512_no_vzeroupper
                0x0000000000000020                __memmove_chk_avx512_no_vzeroupper
                0x0000000000000030                __memcpy_avx512_no_vzeroupper
                0x0000000000000030                __memmove_avx512_no_vzeroupper
 *fill*         0x000000000000076f        0x1 
 .text.avx512   0x0000000000000770      0x284 /home/andrea/Desktop/Star-Os/glibc-2.38/build/libc_pic.a(memset-avx512-no-vzeroupper.os)
                0x0000000000000770                __memset_chk_avx512_no_vzeroupper
                0x0000000000000780                __memset_avx512_no_vzeroupper

.text.ssse3     0x0000000000000000      0xf7d
 .text.ssse3    0x0000000000000000      0xf7d /home/andrea/Desktop/Star-Os/glibc-2.38/build/libc_pic.a(memmove-ssse3.os)
                0x0000000000000000                __mempcpy_chk_ssse3
                0x0000000000000010                __mempcpy_ssse3
                0x0000000000000020                __memcpy_chk_ssse3
                0x0000000000000020                __memmove_chk_ssse3
                0x0000000000000040                __memcpy_ssse3
                0x0000000000000040                __memmove_ssse3

.text.atom      0x0000000000000000      0x315
 .text.atom     0x0000000000000000      0x315 /home/andrea/Desktop/Star-Os/glibc-2.38/build/libc_pic.a(strchr-sse2-no-bsf.os)
                0x0000000000000000                __strchr_sse2_no_bsf

.text.sse4.2    0x0000000000000000     0x1ea9
 .text.sse4.2   0x0000000000000000      0xda9 /home/andrea/Desktop/Star-Os/glibc-2.38/build/libc_pic.a(strcmp-sse4_2.os)
                0x0000000000000000                __strcmp_sse42
 *fill*         0x0000000000000da9        0x7 
 .text.sse4.2   0x0000000000000db0      0x11b /home/andrea/Desktop/Star-Os/glibc-2.38/build/libc_pic.a(strcspn-sse4.os)
                0x0000000000000db0                __strcspn_sse42
 *fill*         0x0000000000000ecb        0x5 
 .text.sse4.2   0x0000000000000ed0      0xfd9 /home/andrea/Desktop/Star-Os/glibc-2.38/build/libc_pic.a(strncmp-sse4_2.os)
                0x0000000000000ed0                __strncmp_sse42

.fini
 *(SORT_NONE(.fini))

.rodata         0x0000000000000000     0x1875
 *(.rodata)
 .rodata        0x0000000000000000     0x1192 /home/andrea/Desktop/Star-Os/glibc-2.38/build/elf/dl-allobjs.os
 .rodata        0x0000000000001192       0x80 /home/andrea/Desktop/Star-Os/glibc-2.38/build/libc_pic.a(stpcpy-sse2-unaligned.os)
 *fill*         0x0000000000001212        0x6 
 .rodata        0x0000000000001218       0x40 /home/andrea/Desktop/Star-Os/glibc-2.38/build/libc_pic.a(strcmp-sse2.os)
 .rodata        0x0000000000001258       0x40 /home/andrea/Desktop/Star-Os/glibc-2.38/build/libc_pic.a(strncmp-sse2.os)
 *fill*         0x0000000000001298        0x8 
 .rodata        0x00000000000012a0       0x1f /home/andrea/Desktop/Star-Os/glibc-2.38/build/libc_pic.a(varshift.os)
                0x00000000000012a0                ___m128i_shift_right
 *fill*         0x00000000000012bf        0x1 
 .rodata        0x00000000000012c0       0x34 /home/andrea/Desktop/Star-Os/glibc-2.38/build/libc_pic.a(cacheinfo.os)
 *fill*         0x00000000000012f4        0xc 
 .rodata        0x0000000000001300      0x575 /home/andrea/Desktop/Star-Os/glibc-2.38/build/libc_pic.a(errname.os)

.rodata.str1.1  0x0000000000000000     0x183d
 .rodata.str1.1
                0x0000000000000000     0x1828 /home/andrea/Desktop/Star-Os/glibc-2.38/build/elf/dl-allobjs.os
 .rodata.str1.1
                0x0000000000001828       0x14 /home/andrea/Desktop/Star-Os/glibc-2.38/build/libc_pic.a(check_fds.os)
 .rodata.str1.1
                0x000000000000183c        0x1 /home/andrea/Desktop/Star-Os/glibc-2.38/build/libc_pic.a(fstat64.os)

.rodata.str1.16
                0x0000000000000000      0x525
 .rodata.str1.16
                0x0000000000000000      0x525 /home/andrea/Desktop/Star-Os/glibc-2.38/build/elf/dl-allobjs.os
                0x0000000000000390                _dl_hwcaps_subdirs
                0x00000000000003f0                __GI__itoa_lower_digits
                0x00000000000003f0                _itoa_lower_digits

.rodata.str1.8  0x0000000000000000     0x2ddf
 .rodata.str1.8
                0x0000000000000000     0x2da1 /home/andrea/Desktop/Star-Os/glibc-2.38/build/elf/dl-allobjs.os
 *fill*         0x0000000000002da1        0x7 
 .rodata.str1.8
                0x0000000000002da8       0x37 /home/andrea/Desktop/Star-Os/glibc-2.38/build/libc_pic.a(lowlevellock.os)

.rodata.str1.32
                0x0000000000000000       0x5b
 .rodata.str1.32
                0x0000000000000000       0x5b /home/andrea/Desktop/Star-Os/glibc-2.38/build/elf/dl-allobjs.os

.rodata.cst4    0x0000000000000000        0x8
 .rodata.cst4   0x0000000000000000        0x8 /home/andrea/Desktop/Star-Os/glibc-2.38/build/elf/dl-allobjs.os
                0x0000000000000004                __rseq_flags

.rodata.cst2    0x0000000000000000        0x4
 .rodata.cst2   0x0000000000000000        0x4 /home/andrea/Desktop/Star-Os/glibc-2.38/build/elf/dl-allobjs.os

.rodata.cst16   0x0000000000000000       0x30
 .rodata.cst16  0x0000000000000000       0x30 /home/andrea/Desktop/Star-Os/glibc-2.38/build/elf/dl-allobjs.os

.rodata.cst8    0x0000000000000000        0x8
 .rodata.cst8   0x0000000000000000        0x8 /home/andrea/Desktop/Star-Os/glibc-2.38/build/elf/dl-allobjs.os

.rodata.sse4.2  0x0000000000000000       0x80
 .rodata.sse4.2
                0x0000000000000000       0x40 /home/andrea/Desktop/Star-Os/glibc-2.38/build/libc_pic.a(strcmp-sse4_2.os)
 .rodata.sse4.2
                0x0000000000000040       0x40 /home/andrea/Desktop/Star-Os/glibc-2.38/build/libc_pic.a(strncmp-sse4_2.os)

.rodata1
 *(.rodata1)

.eh_frame_hdr
 *(.eh_frame_hdr)

.eh_frame       0x0000000000000000     0x50c4
 *(.eh_frame)
 .eh_frame      0x0000000000000000     0x33f0 /home/andrea/Desktop/Star-Os/glibc-2.38/build/elf/dl-allobjs.os
                                       0x3470 (size before relaxing)
 .eh_frame      0x00000000000033f0       0x68 /home/andrea/Desktop/Star-Os/glibc-2.38/build/libc_pic.a(check_fds.os)
 .eh_frame      0x0000000000003458       0x30 /home/andrea/Desktop/Star-Os/glibc-2.38/build/libc_pic.a(setjmp.os)
 .eh_frame      0x0000000000003488       0x48 /home/andrea/Desktop/Star-Os/glibc-2.38/build/libc_pic.a(__longjmp.os)
 .eh_frame      0x00000000000034d0       0x70 /home/andrea/Desktop/Star-Os/glibc-2.38/build/libc_pic.a(lowlevellock.os)
 .eh_frame      0x0000000000003540       0x48 /home/andrea/Desktop/Star-Os/glibc-2.38/build/libc_pic.a(scratch_buffer_set_array_size.os)
 .eh_frame      0x0000000000003588       0x30 /home/andrea/Desktop/Star-Os/glibc-2.38/build/libc_pic.a(memchr.os)
 .eh_frame      0x00000000000035b8       0x30 /home/andrea/Desktop/Star-Os/glibc-2.38/build/libc_pic.a(memcmp.os)
 .eh_frame      0x00000000000035e8       0x30 /home/andrea/Desktop/Star-Os/glibc-2.38/build/libc_pic.a(memcpy.os)
 .eh_frame      0x0000000000003618       0x30 /home/andrea/Desktop/Star-Os/glibc-2.38/build/libc_pic.a(memmove.os)
 .eh_frame      0x0000000000003648       0x30 /home/andrea/Desktop/Star-Os/glibc-2.38/build/libc_pic.a(mempcpy.os)
 .eh_frame      0x0000000000003678       0x30 /home/andrea/Desktop/Star-Os/glibc-2.38/build/libc_pic.a(memset.os)
 .eh_frame      0x00000000000036a8       0x30 /home/andrea/Desktop/Star-Os/glibc-2.38/build/libc_pic.a(stpcpy.os)
 .eh_frame      0x00000000000036d8       0x30 /home/andrea/Desktop/Star-Os/glibc-2.38/build/libc_pic.a(strchr.os)
 .eh_frame      0x0000000000003708       0x30 /home/andrea/Desktop/Star-Os/glibc-2.38/build/libc_pic.a(strcmp.os)
 .eh_frame      0x0000000000003738       0x30 /home/andrea/Desktop/Star-Os/glibc-2.38/build/libc_pic.a(strcspn.os)
 .eh_frame      0x0000000000003768       0x50 /home/andrea/Desktop/Star-Os/glibc-2.38/build/libc_pic.a(strdup.os)
 .eh_frame      0x00000000000037b8       0x30 /home/andrea/Desktop/Star-Os/glibc-2.38/build/libc_pic.a(strerrorname_np.os)
 .eh_frame      0x00000000000037e8       0x30 /home/andrea/Desktop/Star-Os/glibc-2.38/build/libc_pic.a(strlen.os)
 .eh_frame      0x0000000000003818       0x30 /home/andrea/Desktop/Star-Os/glibc-2.38/build/libc_pic.a(strncmp.os)
 .eh_frame      0x0000000000003848       0x30 /home/andrea/Desktop/Star-Os/glibc-2.38/build/libc_pic.a(strnlen.os)
 .eh_frame      0x0000000000003878       0x30 /home/andrea/Desktop/Star-Os/glibc-2.38/build/libc_pic.a(memchr-avx2.os)
 .eh_frame      0x00000000000038a8       0x30 /home/andrea/Desktop/Star-Os/glibc-2.38/build/libc_pic.a(memchr-avx2-rtm.os)
 .eh_frame      0x00000000000038d8       0x30 /home/andrea/Desktop/Star-Os/glibc-2.38/build/libc_pic.a(memchr-evex.os)
 .eh_frame      0x0000000000003908       0x30 /home/andrea/Desktop/Star-Os/glibc-2.38/build/libc_pic.a(memchr-evex-rtm.os)
 .eh_frame      0x0000000000003938       0x30 /home/andrea/Desktop/Star-Os/glibc-2.38/build/libc_pic.a(memchr-sse2.os)
 .eh_frame      0x0000000000003968       0x30 /home/andrea/Desktop/Star-Os/glibc-2.38/build/libc_pic.a(memcmp-avx2-movbe.os)
 .eh_frame      0x0000000000003998       0x30 /home/andrea/Desktop/Star-Os/glibc-2.38/build/libc_pic.a(memcmp-avx2-movbe-rtm.os)
 .eh_frame      0x00000000000039c8       0x30 /home/andrea/Desktop/Star-Os/glibc-2.38/build/libc_pic.a(memcmp-evex-movbe.os)
 .eh_frame      0x00000000000039f8       0x30 /home/andrea/Desktop/Star-Os/glibc-2.38/build/libc_pic.a(memcmp-sse2.os)
 .eh_frame      0x0000000000003a28       0xb8 /home/andrea/Desktop/Star-Os/glibc-2.38/build/libc_pic.a(memmove-avx-unaligned-erms.os)
 .eh_frame      0x0000000000003ae0       0xb8 /home/andrea/Desktop/Star-Os/glibc-2.38/build/libc_pic.a(memmove-avx-unaligned-erms-rtm.os)
 .eh_frame      0x0000000000003b98       0x68 /home/andrea/Desktop/Star-Os/glibc-2.38/build/libc_pic.a(memmove-avx512-no-vzeroupper.os)
 .eh_frame      0x0000000000003c00       0xb8 /home/andrea/Desktop/Star-Os/glibc-2.38/build/libc_pic.a(memmove-avx512-unaligned-erms.os)
 .eh_frame      0x0000000000003cb8       0x68 /home/andrea/Desktop/Star-Os/glibc-2.38/build/libc_pic.a(memmove-erms.os)
 .eh_frame      0x0000000000003d20       0xb8 /home/andrea/Desktop/Star-Os/glibc-2.38/build/libc_pic.a(memmove-evex-unaligned-erms.os)
 .eh_frame      0x0000000000003dd8       0xb8 /home/andrea/Desktop/Star-Os/glibc-2.38/build/libc_pic.a(memmove-sse2-unaligned-erms.os)
 .eh_frame      0x0000000000003e90       0x68 /home/andrea/Desktop/Star-Os/glibc-2.38/build/libc_pic.a(memmove-ssse3.os)
 .eh_frame      0x0000000000003ef8       0x90 /home/andrea/Desktop/Star-Os/glibc-2.38/build/libc_pic.a(memset-avx2-unaligned-erms.os)
 .eh_frame      0x0000000000003f88       0x90 /home/andrea/Desktop/Star-Os/glibc-2.38/build/libc_pic.a(memset-avx2-unaligned-erms-rtm.os)
 .eh_frame      0x0000000000004018       0x40 /home/andrea/Desktop/Star-Os/glibc-2.38/build/libc_pic.a(memset-avx512-no-vzeroupper.os)
 .eh_frame      0x0000000000004058       0x90 /home/andrea/Desktop/Star-Os/glibc-2.38/build/libc_pic.a(memset-avx512-unaligned-erms.os)
 .eh_frame      0x00000000000040e8       0x40 /home/andrea/Desktop/Star-Os/glibc-2.38/build/libc_pic.a(memset-erms.os)
 .eh_frame      0x0000000000004128       0x90 /home/andrea/Desktop/Star-Os/glibc-2.38/build/libc_pic.a(memset-evex-unaligned-erms.os)
 .eh_frame      0x00000000000041b8       0x90 /home/andrea/Desktop/Star-Os/glibc-2.38/build/libc_pic.a(memset-sse2-unaligned-erms.os)
 .eh_frame      0x0000000000004248       0x30 /home/andrea/Desktop/Star-Os/glibc-2.38/build/libc_pic.a(stpcpy-avx2.os)
 .eh_frame      0x0000000000004278       0x30 /home/andrea/Desktop/Star-Os/glibc-2.38/build/libc_pic.a(stpcpy-avx2-rtm.os)
 .eh_frame      0x00000000000042a8       0x30 /home/andrea/Desktop/Star-Os/glibc-2.38/build/libc_pic.a(stpcpy-evex.os)
 .eh_frame      0x00000000000042d8       0x30 /home/andrea/Desktop/Star-Os/glibc-2.38/build/libc_pic.a(stpcpy-sse2.os)
 .eh_frame      0x0000000000004308       0x30 /home/andrea/Desktop/Star-Os/glibc-2.38/build/libc_pic.a(stpcpy-sse2-unaligned.os)
 .eh_frame      0x0000000000004338       0x30 /home/andrea/Desktop/Star-Os/glibc-2.38/build/libc_pic.a(strchr-avx2.os)
 .eh_frame      0x0000000000004368       0x30 /home/andrea/Desktop/Star-Os/glibc-2.38/build/libc_pic.a(strchr-avx2-rtm.os)
 .eh_frame      0x0000000000004398       0x30 /home/andrea/Desktop/Star-Os/glibc-2.38/build/libc_pic.a(strchr-evex.os)
 .eh_frame      0x00000000000043c8       0x30 /home/andrea/Desktop/Star-Os/glibc-2.38/build/libc_pic.a(strchr-sse2.os)
 .eh_frame      0x00000000000043f8       0x30 /home/andrea/Desktop/Star-Os/glibc-2.38/build/libc_pic.a(strchr-sse2-no-bsf.os)
 .eh_frame      0x0000000000004428       0x30 /home/andrea/Desktop/Star-Os/glibc-2.38/build/libc_pic.a(strcmp-avx2.os)
 .eh_frame      0x0000000000004458       0x30 /home/andrea/Desktop/Star-Os/glibc-2.38/build/libc_pic.a(strcmp-avx2-rtm.os)
 .eh_frame      0x0000000000004488       0x30 /home/andrea/Desktop/Star-Os/glibc-2.38/build/libc_pic.a(strcmp-evex.os)
 .eh_frame      0x00000000000044b8       0x30 /home/andrea/Desktop/Star-Os/glibc-2.38/build/libc_pic.a(strcmp-sse2.os)
 .eh_frame      0x00000000000044e8       0x30 /home/andrea/Desktop/Star-Os/glibc-2.38/build/libc_pic.a(strcmp-sse2-unaligned.os)
 .eh_frame      0x0000000000004518       0x30 /home/andrea/Desktop/Star-Os/glibc-2.38/build/libc_pic.a(strcmp-sse4_2.os)
 .eh_frame      0x0000000000004548       0x30 /home/andrea/Desktop/Star-Os/glibc-2.38/build/libc_pic.a(strcspn-sse4.os)
 .eh_frame      0x0000000000004578       0x30 /home/andrea/Desktop/Star-Os/glibc-2.38/build/libc_pic.a(strlen-avx2.os)
 .eh_frame      0x00000000000045a8       0x30 /home/andrea/Desktop/Star-Os/glibc-2.38/build/libc_pic.a(strlen-avx2-rtm.os)
 .eh_frame      0x00000000000045d8       0x30 /home/andrea/Desktop/Star-Os/glibc-2.38/build/libc_pic.a(strlen-evex.os)
 .eh_frame      0x0000000000004608       0x30 /home/andrea/Desktop/Star-Os/glibc-2.38/build/libc_pic.a(strlen-sse2.os)
 .eh_frame      0x0000000000004638       0x30 /home/andrea/Desktop/Star-Os/glibc-2.38/build/libc_pic.a(strncmp-avx2.os)
 .eh_frame      0x0000000000004668       0x30 /home/andrea/Desktop/Star-Os/glibc-2.38/build/libc_pic.a(strncmp-avx2-rtm.os)
 .eh_frame      0x0000000000004698       0x30 /home/andrea/Desktop/Star-Os/glibc-2.38/build/libc_pic.a(strncmp-evex.os)
 .eh_frame      0x00000000000046c8       0x30 /home/andrea/Desktop/Star-Os/glibc-2.38/build/libc_pic.a(strncmp-sse2.os)
 .eh_frame      0x00000000000046f8       0x30 /home/andrea/Desktop/Star-Os/glibc-2.38/build/libc_pic.a(strncmp-sse4_2.os)
 .eh_frame      0x0000000000004728       0x30 /home/andrea/Desktop/Star-Os/glibc-2.38/build/libc_pic.a(strnlen-avx2.os)
 .eh_frame      0x0000000000004758       0x30 /home/andrea/Desktop/Star-Os/glibc-2.38/build/libc_pic.a(strnlen-avx2-rtm.os)
 .eh_frame      0x0000000000004788       0x30 /home/andrea/Desktop/Star-Os/glibc-2.38/build/libc_pic.a(strnlen-evex.os)
 .eh_frame      0x00000000000047b8       0x30 /home/andrea/Desktop/Star-Os/glibc-2.38/build/libc_pic.a(strnlen-sse2.os)
 .eh_frame      0x00000000000047e8       0x50 /home/andrea/Desktop/Star-Os/glibc-2.38/build/libc_pic.a(strcspn-generic.os)
 .eh_frame      0x0000000000004838       0x40 /home/andrea/Desktop/Star-Os/glibc-2.38/build/libc_pic.a(cacheinfo.os)
 .eh_frame      0x0000000000004878       0x38 /home/andrea/Desktop/Star-Os/glibc-2.38/build/libc_pic.a(closedir.os)
 .eh_frame      0x00000000000048b0       0x50 /home/andrea/Desktop/Star-Os/glibc-2.38/build/libc_pic.a(rewinddir.os)
 .eh_frame      0x0000000000004900       0x58 /home/andrea/Desktop/Star-Os/glibc-2.38/build/libc_pic.a(readdir64.os)
 .eh_frame      0x0000000000004958       0x48 /home/andrea/Desktop/Star-Os/glibc-2.38/build/libc_pic.a(fdopendir.os)
 .eh_frame      0x00000000000049a0       0x30 /home/andrea/Desktop/Star-Os/glibc-2.38/build/libc_pic.a(_exit.os)
 .eh_frame      0x00000000000049d0       0x30 /home/andrea/Desktop/Star-Os/glibc-2.38/build/libc_pic.a(getpid.os)
 .eh_frame      0x0000000000004a00       0x30 /home/andrea/Desktop/Star-Os/glibc-2.38/build/libc_pic.a(uname.os)
 .eh_frame      0x0000000000004a30       0x30 /home/andrea/Desktop/Star-Os/glibc-2.38/build/libc_pic.a(access.os)
 .eh_frame      0x0000000000004a60       0x30 /home/andrea/Desktop/Star-Os/glibc-2.38/build/libc_pic.a(fstat64.os)
 .eh_frame      0x0000000000004a90       0x30 /home/andrea/Desktop/Star-Os/glibc-2.38/build/libc_pic.a(fstatat64.os)
 .eh_frame      0x0000000000004ac0       0x30 /home/andrea/Desktop/Star-Os/glibc-2.38/build/libc_pic.a(lseek64.os)
 .eh_frame      0x0000000000004af0       0x30 /home/andrea/Desktop/Star-Os/glibc-2.38/build/libc_pic.a(lstat64.os)
 .eh_frame      0x0000000000004b20       0x40 /home/andrea/Desktop/Star-Os/glibc-2.38/build/libc_pic.a(openat64.os)
 .eh_frame      0x0000000000004b60       0x30 /home/andrea/Desktop/Star-Os/glibc-2.38/build/libc_pic.a(stat64.os)
 .eh_frame      0x0000000000004b90       0x30 /home/andrea/Desktop/Star-Os/glibc-2.38/build/libc_pic.a(close_nocancel.os)
 .eh_frame      0x0000000000004bc0       0x40 /home/andrea/Desktop/Star-Os/glibc-2.38/build/libc_pic.a(fcntl_nocancel.os)
 .eh_frame      0x0000000000004c00       0x30 /home/andrea/Desktop/Star-Os/glibc-2.38/build/libc_pic.a(open64_nocancel.os)
 .eh_frame      0x0000000000004c30       0x30 /home/andrea/Desktop/Star-Os/glibc-2.38/build/libc_pic.a(pread64_nocancel.os)
 .eh_frame      0x0000000000004c60       0x30 /home/andrea/Desktop/Star-Os/glibc-2.38/build/libc_pic.a(read_nocancel.os)
 .eh_frame      0x0000000000004c90       0x30 /home/andrea/Desktop/Star-Os/glibc-2.38/build/libc_pic.a(write_nocancel.os)
 .eh_frame      0x0000000000004cc0       0x48 /home/andrea/Desktop/Star-Os/glibc-2.38/build/libc_pic.a(mmap64.os)
 .eh_frame      0x0000000000004d08       0x30 /home/andrea/Desktop/Star-Os/glibc-2.38/build/libc_pic.a(mprotect.os)
 .eh_frame      0x0000000000004d38       0x30 /home/andrea/Desktop/Star-Os/glibc-2.38/build/libc_pic.a(munmap.os)
 .eh_frame      0x0000000000004d68       0x88 /home/andrea/Desktop/Star-Os/glibc-2.38/build/libc_pic.a(profil.os)
 .eh_frame      0x0000000000004df0       0x30 /home/andrea/Desktop/Star-Os/glibc-2.38/build/libc_pic.a(prof-freq.os)
 .eh_frame      0x0000000000004e20       0x30 /home/andrea/Desktop/Star-Os/glibc-2.38/build/libc_pic.a(dl-addr-obj.os)
 .eh_frame      0x0000000000004e50       0x30 /home/andrea/Desktop/Star-Os/glibc-2.38/build/libc_pic.a(sigaction.os)
 .eh_frame      0x0000000000004e80       0xc8 /home/andrea/Desktop/Star-Os/glibc-2.38/build/libc_pic.a(libc_sigaction.os)
                                         0xd0 (size before relaxing)
 .eh_frame      0x0000000000004f48       0x30 /home/andrea/Desktop/Star-Os/glibc-2.38/build/libc_pic.a(errname.os)
 .eh_frame      0x0000000000004f78       0x30 /home/andrea/Desktop/Star-Os/glibc-2.38/build/libc_pic.a(strchrnul.os)
 .eh_frame      0x0000000000004fa8       0x30 /home/andrea/Desktop/Star-Os/glibc-2.38/build/libc_pic.a(strchrnul-avx2.os)
 .eh_frame      0x0000000000004fd8       0x30 /home/andrea/Desktop/Star-Os/glibc-2.38/build/libc_pic.a(strchrnul-avx2-rtm.os)
 .eh_frame      0x0000000000005008       0x30 /home/andrea/Desktop/Star-Os/glibc-2.38/build/libc_pic.a(strchrnul-evex.os)
 .eh_frame      0x0000000000005038       0x30 /home/andrea/Desktop/Star-Os/glibc-2.38/build/libc_pic.a(strchrnul-sse2.os)
 .eh_frame      0x0000000000005068       0x30 /home/andrea/Desktop/Star-Os/glibc-2.38/build/libc_pic.a(setitimer.os)
 .eh_frame      0x0000000000005098       0x2c /home/andrea/Desktop/Star-Os/glibc-2.38/build/libc_pic.a(getdents64.os)
                                         0x30 (size before relaxing)

.sframe
 *(.sframe)

.gcc_except_table
 *(.gcc_except_table)

.gnu_extab
 *(.gnu_extab*)

.exception_ranges
 *(.exception_ranges)

.eh_frame
 *(.eh_frame)

.sframe
 *(.sframe)

.gnu_extab
 *(.gnu_extab)

.gcc_except_table
 *(.gcc_except_table)

.exception_ranges
 *(.exception_ranges)

.tdata
 *(.tdata)

.tbss           0x0000000000000000        0x4
 *(.tbss)
 .tbss          0x0000000000000000        0x4 /home/andrea/Desktop/Star-Os/glibc-2.38/build/libc_pic.a(errno.os)
                0x0000000000000000                errno
                0x0000000000000000                __libc_errno

.jcr
 *(.jcr)

.dynamic
 *(.dynamic)

.got
 *(.got)

.got.plt
 *(.got.plt)

.data           0x0000000000000000     0x1118
 *(.data)
 .data          0x0000000000000000        0x0 /home/andrea/Desktop/Star-Os/glibc-2.38/build/elf/librtld.mapT.o
 .data          0x0000000000000000     0x10e8 /home/andrea/Desktop/Star-Os/glibc-2.38/build/elf/dl-allobjs.os
                0x0000000000000000                _rtld_global
                0x0000000000000000                _rtld_local
 .data          0x00000000000010e8        0x0 /home/andrea/Desktop/Star-Os/glibc-2.38/build/libc_pic.a(check_fds.os)
 .data          0x00000000000010e8        0x0 /home/andrea/Desktop/Star-Os/glibc-2.38/build/libc_pic.a(errno.os)
 .data          0x00000000000010e8        0x0 /home/andrea/Desktop/Star-Os/glibc-2.38/build/libc_pic.a(setjmp.os)
 .data          0x00000000000010e8        0x0 /home/andrea/Desktop/Star-Os/glibc-2.38/build/libc_pic.a(__longjmp.os)
 .data          0x00000000000010e8        0x0 /home/andrea/Desktop/Star-Os/glibc-2.38/build/libc_pic.a(lowlevellock.os)
 .data          0x00000000000010e8        0x0 /home/andrea/Desktop/Star-Os/glibc-2.38/build/libc_pic.a(scratch_buffer_set_array_size.os)
 .data          0x00000000000010e8        0x0 /home/andrea/Desktop/Star-Os/glibc-2.38/build/libc_pic.a(memchr.os)
 .data          0x00000000000010e8        0x0 /home/andrea/Desktop/Star-Os/glibc-2.38/build/libc_pic.a(memcmp.os)
 .data          0x00000000000010e8        0x0 /home/andrea/Desktop/Star-Os/glibc-2.38/build/libc_pic.a(memcpy.os)
 .data          0x00000000000010e8        0x0 /home/andrea/Desktop/Star-Os/glibc-2.38/build/libc_pic.a(memmove.os)
 .data          0x00000000000010e8        0x0 /home/andrea/Desktop/Star-Os/glibc-2.38/build/libc_pic.a(mempcpy.os)
 .data          0x00000000000010e8        0x0 /home/andrea/Desktop/Star-Os/glibc-2.38/build/libc_pic.a(memset.os)
 .data          0x00000000000010e8        0x0 /home/andrea/Desktop/Star-Os/glibc-2.38/build/libc_pic.a(stpcpy.os)
 .data          0x00000000000010e8        0x0 /home/andrea/Desktop/Star-Os/glibc-2.38/build/libc_pic.a(strchr.os)
 .data          0x00000000000010e8        0x0 /home/andrea/Desktop/Star-Os/glibc-2.38/build/libc_pic.a(strcmp.os)
 .data          0x00000000000010e8        0x0 /home/andrea/Desktop/Star-Os/glibc-2.38/build/libc_pic.a(strcspn.os)
 .data          0x00000000000010e8        0x0 /home/andrea/Desktop/Star-Os/glibc-2.38/build/libc_pic.a(strdup.os)
 .data          0x00000000000010e8        0x0 /home/andrea/Desktop/Star-Os/glibc-2.38/build/libc_pic.a(strerrorname_np.os)
 .data          0x00000000000010e8        0x0 /home/andrea/Desktop/Star-Os/glibc-2.38/build/libc_pic.a(strlen.os)
 .data          0x00000000000010e8        0x0 /home/andrea/Desktop/Star-Os/glibc-2.38/build/libc_pic.a(strncmp.os)
 .data          0x00000000000010e8        0x0 /home/andrea/Desktop/Star-Os/glibc-2.38/build/libc_pic.a(strnlen.os)
 .data          0x00000000000010e8        0x0 /home/andrea/Desktop/Star-Os/glibc-2.38/build/libc_pic.a(memchr-avx2.os)
 .data          0x00000000000010e8        0x0 /home/andrea/Desktop/Star-Os/glibc-2.38/build/libc_pic.a(memchr-avx2-rtm.os)
 .data          0x00000000000010e8        0x0 /home/andrea/Desktop/Star-Os/glibc-2.38/build/libc_pic.a(memchr-evex.os)
 .data          0x00000000000010e8        0x0 /home/andrea/Desktop/Star-Os/glibc-2.38/build/libc_pic.a(memchr-evex-rtm.os)
 .data          0x00000000000010e8        0x0 /home/andrea/Desktop/Star-Os/glibc-2.38/build/libc_pic.a(memchr-sse2.os)
 .data          0x00000000000010e8        0x0 /home/andrea/Desktop/Star-Os/glibc-2.38/build/libc_pic.a(memcmp-avx2-movbe.os)
 .data          0x00000000000010e8        0x0 /home/andrea/Desktop/Star-Os/glibc-2.38/build/libc_pic.a(memcmp-avx2-movbe-rtm.os)
 .data          0x00000000000010e8        0x0 /home/andrea/Desktop/Star-Os/glibc-2.38/build/libc_pic.a(memcmp-evex-movbe.os)
 .data          0x00000000000010e8        0x0 /home/andrea/Desktop/Star-Os/glibc-2.38/build/libc_pic.a(memcmp-sse2.os)
 .data          0x00000000000010e8        0x0 /home/andrea/Desktop/Star-Os/glibc-2.38/build/libc_pic.a(memmove-avx-unaligned-erms.os)
 .data          0x00000000000010e8        0x0 /home/andrea/Desktop/Star-Os/glibc-2.38/build/libc_pic.a(memmove-avx-unaligned-erms-rtm.os)
 .data          0x00000000000010e8        0x0 /home/andrea/Desktop/Star-Os/glibc-2.38/build/libc_pic.a(memmove-avx512-no-vzeroupper.os)
 .data          0x00000000000010e8        0x0 /home/andrea/Desktop/Star-Os/glibc-2.38/build/libc_pic.a(memmove-avx512-unaligned-erms.os)
 .data          0x00000000000010e8        0x0 /home/andrea/Desktop/Star-Os/glibc-2.38/build/libc_pic.a(memmove-erms.os)
 .data          0x00000000000010e8        0x0 /home/andrea/Desktop/Star-Os/glibc-2.38/build/libc_pic.a(memmove-evex-unaligned-erms.os)
 .data          0x00000000000010e8        0x0 /home/andrea/Desktop/Star-Os/glibc-2.38/build/libc_pic.a(memmove-sse2-unaligned-erms.os)
 .data          0x00000000000010e8        0x0 /home/andrea/Desktop/Star-Os/glibc-2.38/build/libc_pic.a(memmove-ssse3.os)
 .data          0x00000000000010e8        0x0 /home/andrea/Desktop/Star-Os/glibc-2.38/build/libc_pic.a(memset-avx2-unaligned-erms.os)
 .data          0x00000000000010e8        0x0 /home/andrea/Desktop/Star-Os/glibc-2.38/build/libc_pic.a(memset-avx2-unaligned-erms-rtm.os)
 .data          0x00000000000010e8        0x0 /home/andrea/Desktop/Star-Os/glibc-2.38/build/libc_pic.a(memset-avx512-no-vzeroupper.os)
 .data          0x00000000000010e8        0x0 /home/andrea/Desktop/Star-Os/glibc-2.38/build/libc_pic.a(memset-avx512-unaligned-erms.os)
 .data          0x00000000000010e8        0x0 /home/andrea/Desktop/Star-Os/glibc-2.38/build/libc_pic.a(memset-erms.os)
 .data          0x00000000000010e8        0x0 /home/andrea/Desktop/Star-Os/glibc-2.38/build/libc_pic.a(memset-evex-unaligned-erms.os)
 .data          0x00000000000010e8        0x0 /home/andrea/Desktop/Star-Os/glibc-2.38/build/libc_pic.a(memset-sse2-unaligned-erms.os)
 .data          0x00000000000010e8        0x0 /home/andrea/Desktop/Star-Os/glibc-2.38/build/libc_pic.a(stpcpy-avx2.os)
 .data          0x00000000000010e8        0x0 /home/andrea/Desktop/Star-Os/glibc-2.38/build/libc_pic.a(stpcpy-avx2-rtm.os)
 .data          0x00000000000010e8        0x0 /home/andrea/Desktop/Star-Os/glibc-2.38/build/libc_pic.a(stpcpy-evex.os)
 .data          0x00000000000010e8        0x0 /home/andrea/Desktop/Star-Os/glibc-2.38/build/libc_pic.a(stpcpy-sse2.os)
 .data          0x00000000000010e8        0x0 /home/andrea/Desktop/Star-Os/glibc-2.38/build/libc_pic.a(stpcpy-sse2-unaligned.os)
 .data          0x00000000000010e8        0x0 /home/andrea/Desktop/Star-Os/glibc-2.38/build/libc_pic.a(strchr-avx2.os)
 .data          0x00000000000010e8        0x0 /home/andrea/Desktop/Star-Os/glibc-2.38/build/libc_pic.a(strchr-avx2-rtm.os)
 .data          0x00000000000010e8        0x0 /home/andrea/Desktop/Star-Os/glibc-2.38/build/libc_pic.a(strchr-evex.os)
 .data          0x00000000000010e8        0x0 /home/andrea/Desktop/Star-Os/glibc-2.38/build/libc_pic.a(strchr-sse2.os)
 .data          0x00000000000010e8        0x0 /home/andrea/Desktop/Star-Os/glibc-2.38/build/libc_pic.a(strchr-sse2-no-bsf.os)
 .data          0x00000000000010e8        0x0 /home/andrea/Desktop/Star-Os/glibc-2.38/build/libc_pic.a(strcmp-avx2.os)
 .data          0x00000000000010e8        0x0 /home/andrea/Desktop/Star-Os/glibc-2.38/build/libc_pic.a(strcmp-avx2-rtm.os)
 .data          0x00000000000010e8        0x0 /home/andrea/Desktop/Star-Os/glibc-2.38/build/libc_pic.a(strcmp-evex.os)
 .data          0x00000000000010e8        0x0 /home/andrea/Desktop/Star-Os/glibc-2.38/build/libc_pic.a(strcmp-sse2.os)
 .data          0x00000000000010e8        0x0 /home/andrea/Desktop/Star-Os/glibc-2.38/build/libc_pic.a(strcmp-sse2-unaligned.os)
 .data          0x00000000000010e8        0x0 /home/andrea/Desktop/Star-Os/glibc-2.38/build/libc_pic.a(strcmp-sse4_2.os)
 .data          0x00000000000010e8        0x0 /home/andrea/Desktop/Star-Os/glibc-2.38/build/libc_pic.a(strcspn-sse4.os)
 .data          0x00000000000010e8        0x0 /home/andrea/Desktop/Star-Os/glibc-2.38/build/libc_pic.a(strlen-avx2.os)
 .data          0x00000000000010e8        0x0 /home/andrea/Desktop/Star-Os/glibc-2.38/build/libc_pic.a(strlen-avx2-rtm.os)
 .data          0x00000000000010e8        0x0 /home/andrea/Desktop/Star-Os/glibc-2.38/build/libc_pic.a(strlen-evex.os)
 .data          0x00000000000010e8        0x0 /home/andrea/Desktop/Star-Os/glibc-2.38/build/libc_pic.a(strlen-sse2.os)
 .data          0x00000000000010e8        0x0 /home/andrea/Desktop/Star-Os/glibc-2.38/build/libc_pic.a(strncmp-avx2.os)
 .data          0x00000000000010e8        0x0 /home/andrea/Desktop/Star-Os/glibc-2.38/build/libc_pic.a(strncmp-avx2-rtm.os)
 .data          0x00000000000010e8        0x0 /home/andrea/Desktop/Star-Os/glibc-2.38/build/libc_pic.a(strncmp-evex.os)
 .data          0x00000000000010e8        0x0 /home/andrea/Desktop/Star-Os/glibc-2.38/build/libc_pic.a(strncmp-sse2.os)
 .data          0x00000000000010e8        0x0 /home/andrea/Desktop/Star-Os/glibc-2.38/build/libc_pic.a(strncmp-sse4_2.os)
 .data          0x00000000000010e8        0x0 /home/andrea/Desktop/Star-Os/glibc-2.38/build/libc_pic.a(strnlen-avx2.os)
 .data          0x00000000000010e8        0x0 /home/andrea/Desktop/Star-Os/glibc-2.38/build/libc_pic.a(strnlen-avx2-rtm.os)
 .data          0x00000000000010e8        0x0 /home/andrea/Desktop/Star-Os/glibc-2.38/build/libc_pic.a(strnlen-evex.os)
 .data          0x00000000000010e8        0x0 /home/andrea/Desktop/Star-Os/glibc-2.38/build/libc_pic.a(strnlen-sse2.os)
 .data          0x00000000000010e8        0x0 /home/andrea/Desktop/Star-Os/glibc-2.38/build/libc_pic.a(varshift.os)
 .data          0x00000000000010e8        0x0 /home/andrea/Desktop/Star-Os/glibc-2.38/build/libc_pic.a(strcspn-generic.os)
 .data          0x00000000000010e8       0x30 /home/andrea/Desktop/Star-Os/glibc-2.38/build/libc_pic.a(cacheinfo.os)
                0x00000000000010e8                __x86_rep_stosb_threshold
                0x00000000000010f0                __x86_rep_movsb_threshold
                0x00000000000010f8                __x86_shared_cache_size
                0x0000000000001100                __x86_shared_cache_size_half
                0x0000000000001108                __x86_data_cache_size
                0x0000000000001110                __x86_data_cache_size_half
 .data          0x0000000000001118        0x0 /home/andrea/Desktop/Star-Os/glibc-2.38/build/libc_pic.a(closedir.os)
 .data          0x0000000000001118        0x0 /home/andrea/Desktop/Star-Os/glibc-2.38/build/libc_pic.a(rewinddir.os)
 .data          0x0000000000001118        0x0 /home/andrea/Desktop/Star-Os/glibc-2.38/build/libc_pic.a(readdir64.os)
 .data          0x0000000000001118        0x0 /home/andrea/Desktop/Star-Os/glibc-2.38/build/libc_pic.a(fdopendir.os)
 .data          0x0000000000001118        0x0 /home/andrea/Desktop/Star-Os/glibc-2.38/build/libc_pic.a(_exit.os)
 .data          0x0000000000001118        0x0 /home/andrea/Desktop/Star-Os/glibc-2.38/build/libc_pic.a(getpid.os)
 .data          0x0000000000001118        0x0 /home/andrea/Desktop/Star-Os/glibc-2.38/build/libc_pic.a(uname.os)
 .data          0x0000000000001118        0x0 /home/andrea/Desktop/Star-Os/glibc-2.38/build/libc_pic.a(environ.os)
 .data          0x0000000000001118        0x0 /home/andrea/Desktop/Star-Os/glibc-2.38/build/libc_pic.a(access.os)
 .data          0x0000000000001118        0x0 /home/andrea/Desktop/Star-Os/glibc-2.38/build/libc_pic.a(fstat64.os)
 .data          0x0000000000001118        0x0 /home/andrea/Desktop/Star-Os/glibc-2.38/build/libc_pic.a(fstatat64.os)
 .data          0x0000000000001118        0x0 /home/andrea/Desktop/Star-Os/glibc-2.38/build/libc_pic.a(lseek64.os)
 .data          0x0000000000001118        0x0 /home/andrea/Desktop/Star-Os/glibc-2.38/build/libc_pic.a(lstat64.os)
 .data          0x0000000000001118        0x0 /home/andrea/Desktop/Star-Os/glibc-2.38/build/libc_pic.a(openat64.os)
 .data          0x0000000000001118        0x0 /home/andrea/Desktop/Star-Os/glibc-2.38/build/libc_pic.a(stat64.os)
 .data          0x0000000000001118        0x0 /home/andrea/Desktop/Star-Os/glibc-2.38/build/libc_pic.a(close_nocancel.os)
 .data          0x0000000000001118        0x0 /home/andrea/Desktop/Star-Os/glibc-2.38/build/libc_pic.a(fcntl_nocancel.os)
 .data          0x0000000000001118        0x0 /home/andrea/Desktop/Star-Os/glibc-2.38/build/libc_pic.a(open64_nocancel.os)
 .data          0x0000000000001118        0x0 /home/andrea/Desktop/Star-Os/glibc-2.38/build/libc_pic.a(pread64_nocancel.os)
 .data          0x0000000000001118        0x0 /home/andrea/Desktop/Star-Os/glibc-2.38/build/libc_pic.a(read_nocancel.os)
 .data          0x0000000000001118        0x0 /home/andrea/Desktop/Star-Os/glibc-2.38/build/libc_pic.a(write_nocancel.os)
 .data          0x0000000000001118        0x0 /home/andrea/Desktop/Star-Os/glibc-2.38/build/libc_pic.a(mmap64.os)
 .data          0x0000000000001118        0x0 /home/andrea/Desktop/Star-Os/glibc-2.38/build/libc_pic.a(mprotect.os)
 .data          0x0000000000001118        0x0 /home/andrea/Desktop/Star-Os/glibc-2.38/build/libc_pic.a(munmap.os)
 .data          0x0000000000001118        0x0 /home/andrea/Desktop/Star-Os/glibc-2.38/build/libc_pic.a(single_threaded.os)
 .data          0x0000000000001118        0x0 /home/andrea/Desktop/Star-Os/glibc-2.38/build/libc_pic.a(profil.os)
 .data          0x0000000000001118        0x0 /home/andrea/Desktop/Star-Os/glibc-2.38/build/libc_pic.a(prof-freq.os)
 .data          0x0000000000001118        0x0 /home/andrea/Desktop/Star-Os/glibc-2.38/build/libc_pic.a(dl-addr-obj.os)
 .data          0x0000000000001118        0x0 /home/andrea/Desktop/Star-Os/glibc-2.38/build/libc_pic.a(sigaction.os)
 .data          0x0000000000001118        0x0 /home/andrea/Desktop/Star-Os/glibc-2.38/build/libc_pic.a(libc_sigaction.os)
 .data          0x0000000000001118        0x0 /home/andrea/Desktop/Star-Os/glibc-2.38/build/libc_pic.a(errname.os)
 .data          0x0000000000001118        0x0 /home/andrea/Desktop/Star-Os/glibc-2.38/build/libc_pic.a(strchrnul.os)
 .data          0x0000000000001118        0x0 /home/andrea/Desktop/Star-Os/glibc-2.38/build/libc_pic.a(strchrnul-avx2.os)
 .data          0x0000000000001118        0x0 /home/andrea/Desktop/Star-Os/glibc-2.38/build/libc_pic.a(strchrnul-avx2-rtm.os)
 .data          0x0000000000001118        0x0 /home/andrea/Desktop/Star-Os/glibc-2.38/build/libc_pic.a(strchrnul-evex.os)
 .data          0x0000000000001118        0x0 /home/andrea/Desktop/Star-Os/glibc-2.38/build/libc_pic.a(strchrnul-sse2.os)
 .data          0x0000000000001118        0x0 /home/andrea/Desktop/Star-Os/glibc-2.38/build/libc_pic.a(setitimer.os)
 .data          0x0000000000001118        0x0 /home/andrea/Desktop/Star-Os/glibc-2.38/build/libc_pic.a(getdents64.os)

.data.rel.ro    0x0000000000000000     0x1708
 .data.rel.ro   0x0000000000000000     0x1708 /home/andrea/Desktop/Star-Os/glibc-2.38/build/elf/dl-allobjs.os
                0x0000000000000040                __rtld_search_dirs
                0x0000000000000070                __rtld_env_path_list
                0x0000000000000080                __stack_prot
                0x0000000000000088                __rseq_offset
                0x0000000000000090                __rseq_size
                0x00000000000012e8                __rtld_realloc
                0x00000000000012f0                __rtld_malloc
                0x00000000000012f8                __rtld_free
                0x0000000000001300                __rtld_calloc
                0x0000000000001308                ___rtld_mutex_unlock
                0x0000000000001310                ___rtld_mutex_lock
                0x0000000000001318                _dl_random
                0x0000000000001320                __libc_stack_end
                0x0000000000001320                __GI___libc_stack_end
                0x0000000000001328                __GI___libc_enable_secure
                0x0000000000001328                __libc_enable_secure
                0x0000000000001350                __pointer_chk_guard_local
                0x0000000000001358                __GI__dl_argv
                0x0000000000001358                _dl_argv
                0x0000000000001360                _dl_argc
                0x0000000000001380                _rtld_global_ro
                0x0000000000001380                _rtld_local_ro

.data.rel.ro.local
                0x0000000000000000       0x30
 .data.rel.ro.local
                0x0000000000000000       0x28 /home/andrea/Desktop/Star-Os/glibc-2.38/build/elf/dl-allobjs.os
                0x0000000000000000                __x86_cpu_features_p
 .data.rel.ro.local
                0x0000000000000028        0x8 /home/andrea/Desktop/Star-Os/glibc-2.38/build/libc_pic.a(cacheinfo.os)
                0x0000000000000028                __x86_cacheinfo_p

.data1
 *(.data1)

.bss            0x0000000000000000      0x2a0
 *(.bss)
 .bss           0x0000000000000000        0x0 /home/andrea/Desktop/Star-Os/glibc-2.38/build/elf/librtld.mapT.o
 .bss           0x0000000000000000      0x190 /home/andrea/Desktop/Star-Os/glibc-2.38/build/elf/dl-allobjs.os
                0x0000000000000018                _r_debug_extended
                0x0000000000000018                _r_debug
                0x00000000000000d8                __nptl_initial_report_events
                0x00000000000000d8                __GI___nptl_initial_report_events
                0x0000000000000110                _dl_hwcaps_priorities_length
                0x0000000000000118                _dl_hwcaps_priorities
                0x0000000000000120                __rtld_tls_init_tp_called
                0x0000000000000188                __curbrk
 .bss           0x0000000000000190        0x0 /home/andrea/Desktop/Star-Os/glibc-2.38/build/libc_pic.a(check_fds.os)
 .bss           0x0000000000000190        0x0 /home/andrea/Desktop/Star-Os/glibc-2.38/build/libc_pic.a(errno.os)
 .bss           0x0000000000000190        0x0 /home/andrea/Desktop/Star-Os/glibc-2.38/build/libc_pic.a(setjmp.os)
 .bss           0x0000000000000190        0x0 /home/andrea/Desktop/Star-Os/glibc-2.38/build/libc_pic.a(__longjmp.os)
 .bss           0x0000000000000190        0x4 /home/andrea/Desktop/Star-Os/glibc-2.38/build/libc_pic.a(lowlevellock.os)
                0x0000000000000190                __GI___pthread_force_elision
                0x0000000000000190                __pthread_force_elision
 .bss           0x0000000000000194        0x0 /home/andrea/Desktop/Star-Os/glibc-2.38/build/libc_pic.a(scratch_buffer_set_array_size.os)
 .bss           0x0000000000000194        0x0 /home/andrea/Desktop/Star-Os/glibc-2.38/build/libc_pic.a(memchr.os)
 .bss           0x0000000000000194        0x0 /home/andrea/Desktop/Star-Os/glibc-2.38/build/libc_pic.a(memcmp.os)
 .bss           0x0000000000000194        0x0 /home/andrea/Desktop/Star-Os/glibc-2.38/build/libc_pic.a(memcpy.os)
 .bss           0x0000000000000194        0x0 /home/andrea/Desktop/Star-Os/glibc-2.38/build/libc_pic.a(memmove.os)
 .bss           0x0000000000000194        0x0 /home/andrea/Desktop/Star-Os/glibc-2.38/build/libc_pic.a(mempcpy.os)
 .bss           0x0000000000000194        0x0 /home/andrea/Desktop/Star-Os/glibc-2.38/build/libc_pic.a(memset.os)
 .bss           0x0000000000000194        0x0 /home/andrea/Desktop/Star-Os/glibc-2.38/build/libc_pic.a(stpcpy.os)
 .bss           0x0000000000000194        0x0 /home/andrea/Desktop/Star-Os/glibc-2.38/build/libc_pic.a(strchr.os)
 .bss           0x0000000000000194        0x0 /home/andrea/Desktop/Star-Os/glibc-2.38/build/libc_pic.a(strcmp.os)
 .bss           0x0000000000000194        0x0 /home/andrea/Desktop/Star-Os/glibc-2.38/build/libc_pic.a(strcspn.os)
 .bss           0x0000000000000194        0x0 /home/andrea/Desktop/Star-Os/glibc-2.38/build/libc_pic.a(strdup.os)
 .bss           0x0000000000000194        0x0 /home/andrea/Desktop/Star-Os/glibc-2.38/build/libc_pic.a(strerrorname_np.os)
 .bss           0x0000000000000194        0x0 /home/andrea/Desktop/Star-Os/glibc-2.38/build/libc_pic.a(strlen.os)
 .bss           0x0000000000000194        0x0 /home/andrea/Desktop/Star-Os/glibc-2.38/build/libc_pic.a(strncmp.os)
 .bss           0x0000000000000194        0x0 /home/andrea/Desktop/Star-Os/glibc-2.38/build/libc_pic.a(strnlen.os)
 .bss           0x0000000000000194        0x0 /home/andrea/Desktop/Star-Os/glibc-2.38/build/libc_pic.a(memchr-avx2.os)
 .bss           0x0000000000000194        0x0 /home/andrea/Desktop/Star-Os/glibc-2.38/build/libc_pic.a(memchr-avx2-rtm.os)
 .bss           0x0000000000000194        0x0 /home/andrea/Desktop/Star-Os/glibc-2.38/build/libc_pic.a(memchr-evex.os)
 .bss           0x0000000000000194        0x0 /home/andrea/Desktop/Star-Os/glibc-2.38/build/libc_pic.a(memchr-evex-rtm.os)
 .bss           0x0000000000000194        0x0 /home/andrea/Desktop/Star-Os/glibc-2.38/build/libc_pic.a(memchr-sse2.os)
 .bss           0x0000000000000194        0x0 /home/andrea/Desktop/Star-Os/glibc-2.38/build/libc_pic.a(memcmp-avx2-movbe.os)
 .bss           0x0000000000000194        0x0 /home/andrea/Desktop/Star-Os/glibc-2.38/build/libc_pic.a(memcmp-avx2-movbe-rtm.os)
 .bss           0x0000000000000194        0x0 /home/andrea/Desktop/Star-Os/glibc-2.38/build/libc_pic.a(memcmp-evex-movbe.os)
 .bss           0x0000000000000194        0x0 /home/andrea/Desktop/Star-Os/glibc-2.38/build/libc_pic.a(memcmp-sse2.os)
 .bss           0x0000000000000194        0x0 /home/andrea/Desktop/Star-Os/glibc-2.38/build/libc_pic.a(memmove-avx-unaligned-erms.os)
 .bss           0x0000000000000194        0x0 /home/andrea/Desktop/Star-Os/glibc-2.38/build/libc_pic.a(memmove-avx-unaligned-erms-rtm.os)
 .bss           0x0000000000000194        0x0 /home/andrea/Desktop/Star-Os/glibc-2.38/build/libc_pic.a(memmove-avx512-no-vzeroupper.os)
 .bss           0x0000000000000194        0x0 /home/andrea/Desktop/Star-Os/glibc-2.38/build/libc_pic.a(memmove-avx512-unaligned-erms.os)
 .bss           0x0000000000000194        0x0 /home/andrea/Desktop/Star-Os/glibc-2.38/build/libc_pic.a(memmove-erms.os)
 .bss           0x0000000000000194        0x0 /home/andrea/Desktop/Star-Os/glibc-2.38/build/libc_pic.a(memmove-evex-unaligned-erms.os)
 .bss           0x0000000000000194        0x0 /home/andrea/Desktop/Star-Os/glibc-2.38/build/libc_pic.a(memmove-sse2-unaligned-erms.os)
 .bss           0x0000000000000194        0x0 /home/andrea/Desktop/Star-Os/glibc-2.38/build/libc_pic.a(memmove-ssse3.os)
 .bss           0x0000000000000194        0x0 /home/andrea/Desktop/Star-Os/glibc-2.38/build/libc_pic.a(memset-avx2-unaligned-erms.os)
 .bss           0x0000000000000194        0x0 /home/andrea/Desktop/Star-Os/glibc-2.38/build/libc_pic.a(memset-avx2-unaligned-erms-rtm.os)
 .bss           0x0000000000000194        0x0 /home/andrea/Desktop/Star-Os/glibc-2.38/build/libc_pic.a(memset-avx512-no-vzeroupper.os)
 .bss           0x0000000000000194        0x0 /home/andrea/Desktop/Star-Os/glibc-2.38/build/libc_pic.a(memset-avx512-unaligned-erms.os)
 .bss           0x0000000000000194        0x0 /home/andrea/Desktop/Star-Os/glibc-2.38/build/libc_pic.a(memset-erms.os)
 .bss           0x0000000000000194        0x0 /home/andrea/Desktop/Star-Os/glibc-2.38/build/libc_pic.a(memset-evex-unaligned-erms.os)
 .bss           0x0000000000000194        0x0 /home/andrea/Desktop/Star-Os/glibc-2.38/build/libc_pic.a(memset-sse2-unaligned-erms.os)
 .bss           0x0000000000000194        0x0 /home/andrea/Desktop/Star-Os/glibc-2.38/build/libc_pic.a(stpcpy-avx2.os)
 .bss           0x0000000000000194        0x0 /home/andrea/Desktop/Star-Os/glibc-2.38/build/libc_pic.a(stpcpy-avx2-rtm.os)
 .bss           0x0000000000000194        0x0 /home/andrea/Desktop/Star-Os/glibc-2.38/build/libc_pic.a(stpcpy-evex.os)
 .bss           0x0000000000000194        0x0 /home/andrea/Desktop/Star-Os/glibc-2.38/build/libc_pic.a(stpcpy-sse2.os)
 .bss           0x0000000000000194        0x0 /home/andrea/Desktop/Star-Os/glibc-2.38/build/libc_pic.a(stpcpy-sse2-unaligned.os)
 .bss           0x0000000000000194        0x0 /home/andrea/Desktop/Star-Os/glibc-2.38/build/libc_pic.a(strchr-avx2.os)
 .bss           0x0000000000000194        0x0 /home/andrea/Desktop/Star-Os/glibc-2.38/build/libc_pic.a(strchr-avx2-rtm.os)
 .bss           0x0000000000000194        0x0 /home/andrea/Desktop/Star-Os/glibc-2.38/build/libc_pic.a(strchr-evex.os)
 .bss           0x0000000000000194        0x0 /home/andrea/Desktop/Star-Os/glibc-2.38/build/libc_pic.a(strchr-sse2.os)
 .bss           0x0000000000000194        0x0 /home/andrea/Desktop/Star-Os/glibc-2.38/build/libc_pic.a(strchr-sse2-no-bsf.os)
 .bss           0x0000000000000194        0x0 /home/andrea/Desktop/Star-Os/glibc-2.38/build/libc_pic.a(strcmp-avx2.os)
 .bss           0x0000000000000194        0x0 /home/andrea/Desktop/Star-Os/glibc-2.38/build/libc_pic.a(strcmp-avx2-rtm.os)
 .bss           0x0000000000000194        0x0 /home/andrea/Desktop/Star-Os/glibc-2.38/build/libc_pic.a(strcmp-evex.os)
 .bss           0x0000000000000194        0x0 /home/andrea/Desktop/Star-Os/glibc-2.38/build/libc_pic.a(strcmp-sse2.os)
 .bss           0x0000000000000194        0x0 /home/andrea/Desktop/Star-Os/glibc-2.38/build/libc_pic.a(strcmp-sse2-unaligned.os)
 .bss           0x0000000000000194        0x0 /home/andrea/Desktop/Star-Os/glibc-2.38/build/libc_pic.a(strcmp-sse4_2.os)
 .bss           0x0000000000000194        0x0 /home/andrea/Desktop/Star-Os/glibc-2.38/build/libc_pic.a(strcspn-sse4.os)
 .bss           0x0000000000000194        0x0 /home/andrea/Desktop/Star-Os/glibc-2.38/build/libc_pic.a(strlen-avx2.os)
 .bss           0x0000000000000194        0x0 /home/andrea/Desktop/Star-Os/glibc-2.38/build/libc_pic.a(strlen-avx2-rtm.os)
 .bss           0x0000000000000194        0x0 /home/andrea/Desktop/Star-Os/glibc-2.38/build/libc_pic.a(strlen-evex.os)
 .bss           0x0000000000000194        0x0 /home/andrea/Desktop/Star-Os/glibc-2.38/build/libc_pic.a(strlen-sse2.os)
 .bss           0x0000000000000194        0x0 /home/andrea/Desktop/Star-Os/glibc-2.38/build/libc_pic.a(strncmp-avx2.os)
 .bss           0x0000000000000194        0x0 /home/andrea/Desktop/Star-Os/glibc-2.38/build/libc_pic.a(strncmp-avx2-rtm.os)
 .bss           0x0000000000000194        0x0 /home/andrea/Desktop/Star-Os/glibc-2.38/build/libc_pic.a(strncmp-evex.os)
 .bss           0x0000000000000194        0x0 /home/andrea/Desktop/Star-Os/glibc-2.38/build/libc_pic.a(strncmp-sse2.os)
 .bss           0x0000000000000194        0x0 /home/andrea/Desktop/Star-Os/glibc-2.38/build/libc_pic.a(strncmp-sse4_2.os)
 .bss           0x0000000000000194        0x0 /home/andrea/Desktop/Star-Os/glibc-2.38/build/libc_pic.a(strnlen-avx2.os)
 .bss           0x0000000000000194        0x0 /home/andrea/Desktop/Star-Os/glibc-2.38/build/libc_pic.a(strnlen-avx2-rtm.os)
 .bss           0x0000000000000194        0x0 /home/andrea/Desktop/Star-Os/glibc-2.38/build/libc_pic.a(strnlen-evex.os)
 .bss           0x0000000000000194        0x0 /home/andrea/Desktop/Star-Os/glibc-2.38/build/libc_pic.a(strnlen-sse2.os)
 .bss           0x0000000000000194        0x0 /home/andrea/Desktop/Star-Os/glibc-2.38/build/libc_pic.a(varshift.os)
 .bss           0x0000000000000194        0x0 /home/andrea/Desktop/Star-Os/glibc-2.38/build/libc_pic.a(strcspn-generic.os)
 *fill*         0x0000000000000194        0x4 
 .bss           0x0000000000000198       0x18 /home/andrea/Desktop/Star-Os/glibc-2.38/build/libc_pic.a(cacheinfo.os)
                0x0000000000000198                __x86_string_control
                0x00000000000001a0                __x86_rep_movsb_stop_threshold
                0x00000000000001a8                __x86_shared_non_temporal_threshold
 .bss           0x00000000000001b0        0x0 /home/andrea/Desktop/Star-Os/glibc-2.38/build/libc_pic.a(closedir.os)
 .bss           0x00000000000001b0        0x0 /home/andrea/Desktop/Star-Os/glibc-2.38/build/libc_pic.a(rewinddir.os)
 .bss           0x00000000000001b0        0x0 /home/andrea/Desktop/Star-Os/glibc-2.38/build/libc_pic.a(readdir64.os)
 .bss           0x00000000000001b0        0x0 /home/andrea/Desktop/Star-Os/glibc-2.38/build/libc_pic.a(fdopendir.os)
 .bss           0x00000000000001b0        0x0 /home/andrea/Desktop/Star-Os/glibc-2.38/build/libc_pic.a(_exit.os)
 .bss           0x00000000000001b0        0x0 /home/andrea/Desktop/Star-Os/glibc-2.38/build/libc_pic.a(getpid.os)
 .bss           0x00000000000001b0        0x0 /home/andrea/Desktop/Star-Os/glibc-2.38/build/libc_pic.a(uname.os)
 .bss           0x00000000000001b0        0x8 /home/andrea/Desktop/Star-Os/glibc-2.38/build/libc_pic.a(environ.os)
                0x00000000000001b0                _environ
                0x00000000000001b0                __environ
                0x00000000000001b0                environ
 .bss           0x00000000000001b8        0x0 /home/andrea/Desktop/Star-Os/glibc-2.38/build/libc_pic.a(access.os)
 .bss           0x00000000000001b8        0x0 /home/andrea/Desktop/Star-Os/glibc-2.38/build/libc_pic.a(fstat64.os)
 .bss           0x00000000000001b8        0x0 /home/andrea/Desktop/Star-Os/glibc-2.38/build/libc_pic.a(fstatat64.os)
 .bss           0x00000000000001b8        0x0 /home/andrea/Desktop/Star-Os/glibc-2.38/build/libc_pic.a(lseek64.os)
 .bss           0x00000000000001b8        0x0 /home/andrea/Desktop/Star-Os/glibc-2.38/build/libc_pic.a(lstat64.os)
 .bss           0x00000000000001b8        0x0 /home/andrea/Desktop/Star-Os/glibc-2.38/build/libc_pic.a(openat64.os)
 .bss           0x00000000000001b8        0x0 /home/andrea/Desktop/Star-Os/glibc-2.38/build/libc_pic.a(stat64.os)
 .bss           0x00000000000001b8        0x0 /home/andrea/Desktop/Star-Os/glibc-2.38/build/libc_pic.a(close_nocancel.os)
 .bss           0x00000000000001b8        0x0 /home/andrea/Desktop/Star-Os/glibc-2.38/build/libc_pic.a(fcntl_nocancel.os)
 .bss           0x00000000000001b8        0x0 /home/andrea/Desktop/Star-Os/glibc-2.38/build/libc_pic.a(open64_nocancel.os)
 .bss           0x00000000000001b8        0x0 /home/andrea/Desktop/Star-Os/glibc-2.38/build/libc_pic.a(pread64_nocancel.os)
 .bss           0x00000000000001b8        0x0 /home/andrea/Desktop/Star-Os/glibc-2.38/build/libc_pic.a(read_nocancel.os)
 .bss           0x00000000000001b8        0x0 /home/andrea/Desktop/Star-Os/glibc-2.38/build/libc_pic.a(write_nocancel.os)
 .bss           0x00000000000001b8        0x0 /home/andrea/Desktop/Star-Os/glibc-2.38/build/libc_pic.a(mmap64.os)
 .bss           0x00000000000001b8        0x0 /home/andrea/Desktop/Star-Os/glibc-2.38/build/libc_pic.a(mprotect.os)
 .bss           0x00000000000001b8        0x0 /home/andrea/Desktop/Star-Os/glibc-2.38/build/libc_pic.a(munmap.os)
 .bss           0x00000000000001b8        0x1 /home/andrea/Desktop/Star-Os/glibc-2.38/build/libc_pic.a(single_threaded.os)
                0x00000000000001b8                __libc_single_threaded
                0x00000000000001b8                __libc_single_threaded_internal
 *fill*         0x00000000000001b9        0x7 
 .bss           0x00000000000001c0       0xe0 /home/andrea/Desktop/Star-Os/glibc-2.38/build/libc_pic.a(profil.os)
 .bss           0x00000000000002a0        0x0 /home/andrea/Desktop/Star-Os/glibc-2.38/build/libc_pic.a(prof-freq.os)
 .bss           0x00000000000002a0        0x0 /home/andrea/Desktop/Star-Os/glibc-2.38/build/libc_pic.a(dl-addr-obj.os)
 .bss           0x00000000000002a0        0x0 /home/andrea/Desktop/Star-Os/glibc-2.38/build/libc_pic.a(sigaction.os)
 .bss           0x00000000000002a0        0x0 /home/andrea/Desktop/Star-Os/glibc-2.38/build/libc_pic.a(libc_sigaction.os)
 .bss           0x00000000000002a0        0x0 /home/andrea/Desktop/Star-Os/glibc-2.38/build/libc_pic.a(errname.os)
 .bss           0x00000000000002a0        0x0 /home/andrea/Desktop/Star-Os/glibc-2.38/build/libc_pic.a(strchrnul.os)
 .bss           0x00000000000002a0        0x0 /home/andrea/Desktop/Star-Os/glibc-2.38/build/libc_pic.a(strchrnul-avx2.os)
 .bss           0x00000000000002a0        0x0 /home/andrea/Desktop/Star-Os/glibc-2.38/build/libc_pic.a(strchrnul-avx2-rtm.os)
 .bss           0x00000000000002a0        0x0 /home/andrea/Desktop/Star-Os/glibc-2.38/build/libc_pic.a(strchrnul-evex.os)
 .bss           0x00000000000002a0        0x0 /home/andrea/Desktop/Star-Os/glibc-2.38/build/libc_pic.a(strchrnul-sse2.os)
 .bss           0x00000000000002a0        0x0 /home/andrea/Desktop/Star-Os/glibc-2.38/build/libc_pic.a(setitimer.os)
 .bss           0x00000000000002a0        0x0 /home/andrea/Desktop/Star-Os/glibc-2.38/build/libc_pic.a(getdents64.os)

.lbss
 *(.lbss)

.lrodata
 *(.lrodata)

.ldata
 *(.ldata)

.stab
 *(.stab)

.stabstr
 *(.stabstr)

.stab.excl
 *(.stab.excl)

.stab.exclstr
 *(.stab.exclstr)

.stab.index
 *(.stab.index)

.stab.indexstr
 *(.stab.indexstr)

.comment        0x0000000000000000     0x102e
 *(.comment)
 .comment       0x0000000000000000      0x850 /home/andrea/Desktop/Star-Os/glibc-2.38/build/elf/dl-allobjs.os
 .comment       0x0000000000000850       0x26 /home/andrea/Desktop/Star-Os/glibc-2.38/build/libc_pic.a(check_fds.os)
 .comment       0x0000000000000876       0x26 /home/andrea/Desktop/Star-Os/glibc-2.38/build/libc_pic.a(errno.os)
 .comment       0x000000000000089c       0x26 /home/andrea/Desktop/Star-Os/glibc-2.38/build/libc_pic.a(lowlevellock.os)
 .comment       0x00000000000008c2       0x26 /home/andrea/Desktop/Star-Os/glibc-2.38/build/libc_pic.a(scratch_buffer_set_array_size.os)
 .comment       0x00000000000008e8       0x26 /home/andrea/Desktop/Star-Os/glibc-2.38/build/libc_pic.a(memchr.os)
 .comment       0x000000000000090e       0x26 /home/andrea/Desktop/Star-Os/glibc-2.38/build/libc_pic.a(memcmp.os)
 .comment       0x0000000000000934       0x26 /home/andrea/Desktop/Star-Os/glibc-2.38/build/libc_pic.a(memcpy.os)
 .comment       0x000000000000095a       0x26 /home/andrea/Desktop/Star-Os/glibc-2.38/build/libc_pic.a(memmove.os)
 .comment       0x0000000000000980       0x26 /home/andrea/Desktop/Star-Os/glibc-2.38/build/libc_pic.a(mempcpy.os)
 .comment       0x00000000000009a6       0x26 /home/andrea/Desktop/Star-Os/glibc-2.38/build/libc_pic.a(memset.os)
 .comment       0x00000000000009cc       0x26 /home/andrea/Desktop/Star-Os/glibc-2.38/build/libc_pic.a(stpcpy.os)
 .comment       0x00000000000009f2       0x26 /home/andrea/Desktop/Star-Os/glibc-2.38/build/libc_pic.a(strchr.os)
 .comment       0x0000000000000a18       0x26 /home/andrea/Desktop/Star-Os/glibc-2.38/build/libc_pic.a(strcmp.os)
 .comment       0x0000000000000a3e       0x26 /home/andrea/Desktop/Star-Os/glibc-2.38/build/libc_pic.a(strcspn.os)
 .comment       0x0000000000000a64       0x26 /home/andrea/Desktop/Star-Os/glibc-2.38/build/libc_pic.a(strdup.os)
 .comment       0x0000000000000a8a       0x26 /home/andrea/Desktop/Star-Os/glibc-2.38/build/libc_pic.a(strerrorname_np.os)
 .comment       0x0000000000000ab0       0x26 /home/andrea/Desktop/Star-Os/glibc-2.38/build/libc_pic.a(strlen.os)
 .comment       0x0000000000000ad6       0x26 /home/andrea/Desktop/Star-Os/glibc-2.38/build/libc_pic.a(strncmp.os)
 .comment       0x0000000000000afc       0x26 /home/andrea/Desktop/Star-Os/glibc-2.38/build/libc_pic.a(strnlen.os)
 .comment       0x0000000000000b22       0x26 /home/andrea/Desktop/Star-Os/glibc-2.38/build/libc_pic.a(strcspn-sse4.os)
 .comment       0x0000000000000b48       0x26 /home/andrea/Desktop/Star-Os/glibc-2.38/build/libc_pic.a(varshift.os)
 .comment       0x0000000000000b6e       0x26 /home/andrea/Desktop/Star-Os/glibc-2.38/build/libc_pic.a(strcspn-generic.os)
 .comment       0x0000000000000b94       0x26 /home/andrea/Desktop/Star-Os/glibc-2.38/build/libc_pic.a(cacheinfo.os)
 .comment       0x0000000000000bba       0x26 /home/andrea/Desktop/Star-Os/glibc-2.38/build/libc_pic.a(closedir.os)
 .comment       0x0000000000000be0       0x26 /home/andrea/Desktop/Star-Os/glibc-2.38/build/libc_pic.a(rewinddir.os)
 .comment       0x0000000000000c06       0x26 /home/andrea/Desktop/Star-Os/glibc-2.38/build/libc_pic.a(readdir64.os)
 .comment       0x0000000000000c2c       0x26 /home/andrea/Desktop/Star-Os/glibc-2.38/build/libc_pic.a(fdopendir.os)
 .comment       0x0000000000000c52       0x26 /home/andrea/Desktop/Star-Os/glibc-2.38/build/libc_pic.a(_exit.os)
 .comment       0x0000000000000c78       0x26 /home/andrea/Desktop/Star-Os/glibc-2.38/build/libc_pic.a(environ.os)
 .comment       0x0000000000000c9e       0x26 /home/andrea/Desktop/Star-Os/glibc-2.38/build/libc_pic.a(access.os)
 .comment       0x0000000000000cc4       0x26 /home/andrea/Desktop/Star-Os/glibc-2.38/build/libc_pic.a(fstat64.os)
 .comment       0x0000000000000cea       0x26 /home/andrea/Desktop/Star-Os/glibc-2.38/build/libc_pic.a(fstatat64.os)
 .comment       0x0000000000000d10       0x26 /home/andrea/Desktop/Star-Os/glibc-2.38/build/libc_pic.a(lseek64.os)
 .comment       0x0000000000000d36       0x26 /home/andrea/Desktop/Star-Os/glibc-2.38/build/libc_pic.a(lstat64.os)
 .comment       0x0000000000000d5c       0x26 /home/andrea/Desktop/Star-Os/glibc-2.38/build/libc_pic.a(openat64.os)
 .comment       0x0000000000000d82       0x26 /home/andrea/Desktop/Star-Os/glibc-2.38/build/libc_pic.a(stat64.os)
 .comment       0x0000000000000da8       0x26 /home/andrea/Desktop/Star-Os/glibc-2.38/build/libc_pic.a(close_nocancel.os)
 .comment       0x0000000000000dce       0x26 /home/andrea/Desktop/Star-Os/glibc-2.38/build/libc_pic.a(fcntl_nocancel.os)
 .comment       0x0000000000000df4       0x26 /home/andrea/Desktop/Star-Os/glibc-2.38/build/libc_pic.a(open64_nocancel.os)
 .comment       0x0000000000000e1a       0x26 /home/andrea/Desktop/Star-Os/glibc-2.38/build/libc_pic.a(pread64_nocancel.os)
 .comment       0x0000000000000e40       0x26 /home/andrea/Desktop/Star-Os/glibc-2.38/build/libc_pic.a(read_nocancel.os)
 .comment       0x0000000000000e66       0x26 /home/andrea/Desktop/Star-Os/glibc-2.38/build/libc_pic.a(write_nocancel.os)
 .comment       0x0000000000000e8c       0x26 /home/andrea/Desktop/Star-Os/glibc-2.38/build/libc_pic.a(mmap64.os)
 .comment       0x0000000000000eb2       0x26 /home/andrea/Desktop/Star-Os/glibc-2.38/build/libc_pic.a(single_threaded.os)
 .comment       0x0000000000000ed8       0x26 /home/andrea/Desktop/Star-Os/glibc-2.38/build/libc_pic.a(profil.os)
 .comment       0x0000000000000efe       0x26 /home/andrea/Desktop/Star-Os/glibc-2.38/build/libc_pic.a(prof-freq.os)
 .comment       0x0000000000000f24       0x26 /home/andrea/Desktop/Star-Os/glibc-2.38/build/libc_pic.a(dl-addr-obj.os)
 .comment       0x0000000000000f4a       0x26 /home/andrea/Desktop/Star-Os/glibc-2.38/build/libc_pic.a(sigaction.os)
 .comment       0x0000000000000f70       0x26 /home/andrea/Desktop/Star-Os/glibc-2.38/build/libc_pic.a(libc_sigaction.os)
 .comment       0x0000000000000f96       0x26 /home/andrea/Desktop/Star-Os/glibc-2.38/build/libc_pic.a(errname.os)
 .comment       0x0000000000000fbc       0x26 /home/andrea/Desktop/Star-Os/glibc-2.38/build/libc_pic.a(strchrnul.os)
 .comment       0x0000000000000fe2       0x26 /home/andrea/Desktop/Star-Os/glibc-2.38/build/libc_pic.a(setitimer.os)
 .comment       0x0000000000001008       0x26 /home/andrea/Desktop/Star-Os/glibc-2.38/build/libc_pic.a(getdents64.os)

.note.GNU-stack
                0x0000000000000000        0x0
 .note.GNU-stack
                0x0000000000000000        0x0 /home/andrea/Desktop/Star-Os/glibc-2.38/build/elf/librtld.mapT.o
 .note.GNU-stack
                0x0000000000000000        0x0 /home/andrea/Desktop/Star-Os/glibc-2.38/build/elf/dl-allobjs.os
 .note.GNU-stack
                0x0000000000000000        0x0 /home/andrea/Desktop/Star-Os/glibc-2.38/build/libc_pic.a(check_fds.os)
 .note.GNU-stack
                0x0000000000000000        0x0 /home/andrea/Desktop/Star-Os/glibc-2.38/build/libc_pic.a(errno.os)
 .note.GNU-stack
                0x0000000000000000        0x0 /home/andrea/Desktop/Star-Os/glibc-2.38/build/libc_pic.a(setjmp.os)
 .note.GNU-stack
                0x0000000000000000        0x0 /home/andrea/Desktop/Star-Os/glibc-2.38/build/libc_pic.a(__longjmp.os)
 .note.GNU-stack
                0x0000000000000000        0x0 /home/andrea/Desktop/Star-Os/glibc-2.38/build/libc_pic.a(lowlevellock.os)
 .note.GNU-stack
                0x0000000000000000        0x0 /home/andrea/Desktop/Star-Os/glibc-2.38/build/libc_pic.a(scratch_buffer_set_array_size.os)
 .note.GNU-stack
                0x0000000000000000        0x0 /home/andrea/Desktop/Star-Os/glibc-2.38/build/libc_pic.a(memchr.os)
 .note.GNU-stack
                0x0000000000000000        0x0 /home/andrea/Desktop/Star-Os/glibc-2.38/build/libc_pic.a(memcmp.os)
 .note.GNU-stack
                0x0000000000000000        0x0 /home/andrea/Desktop/Star-Os/glibc-2.38/build/libc_pic.a(memcpy.os)
 .note.GNU-stack
                0x0000000000000000        0x0 /home/andrea/Desktop/Star-Os/glibc-2.38/build/libc_pic.a(memmove.os)
 .note.GNU-stack
                0x0000000000000000        0x0 /home/andrea/Desktop/Star-Os/glibc-2.38/build/libc_pic.a(mempcpy.os)
 .note.GNU-stack
                0x0000000000000000        0x0 /home/andrea/Desktop/Star-Os/glibc-2.38/build/libc_pic.a(memset.os)
 .note.GNU-stack
                0x0000000000000000        0x0 /home/andrea/Desktop/Star-Os/glibc-2.38/build/libc_pic.a(stpcpy.os)
 .note.GNU-stack
                0x0000000000000000        0x0 /home/andrea/Desktop/Star-Os/glibc-2.38/build/libc_pic.a(strchr.os)
 .note.GNU-stack
                0x0000000000000000        0x0 /home/andrea/Desktop/Star-Os/glibc-2.38/build/libc_pic.a(strcmp.os)
 .note.GNU-stack
                0x0000000000000000        0x0 /home/andrea/Desktop/Star-Os/glibc-2.38/build/libc_pic.a(strcspn.os)
 .note.GNU-stack
                0x0000000000000000        0x0 /home/andrea/Desktop/Star-Os/glibc-2.38/build/libc_pic.a(strdup.os)
 .note.GNU-stack
                0x0000000000000000        0x0 /home/andrea/Desktop/Star-Os/glibc-2.38/build/libc_pic.a(strerrorname_np.os)
 .note.GNU-stack
                0x0000000000000000        0x0 /home/andrea/Desktop/Star-Os/glibc-2.38/build/libc_pic.a(strlen.os)
 .note.GNU-stack
                0x0000000000000000        0x0 /home/andrea/Desktop/Star-Os/glibc-2.38/build/libc_pic.a(strncmp.os)
 .note.GNU-stack
                0x0000000000000000        0x0 /home/andrea/Desktop/Star-Os/glibc-2.38/build/libc_pic.a(strnlen.os)
 .note.GNU-stack
                0x0000000000000000        0x0 /home/andrea/Desktop/Star-Os/glibc-2.38/build/libc_pic.a(memchr-avx2.os)
 .note.GNU-stack
                0x0000000000000000        0x0 /home/andrea/Desktop/Star-Os/glibc-2.38/build/libc_pic.a(memchr-avx2-rtm.os)
 .note.GNU-stack
                0x0000000000000000        0x0 /home/andrea/Desktop/Star-Os/glibc-2.38/build/libc_pic.a(memchr-evex.os)
 .note.GNU-stack
                0x0000000000000000        0x0 /home/andrea/Desktop/Star-Os/glibc-2.38/build/libc_pic.a(memchr-evex-rtm.os)
 .note.GNU-stack
                0x0000000000000000        0x0 /home/andrea/Desktop/Star-Os/glibc-2.38/build/libc_pic.a(memchr-sse2.os)
 .note.GNU-stack
                0x0000000000000000        0x0 /home/andrea/Desktop/Star-Os/glibc-2.38/build/libc_pic.a(memcmp-avx2-movbe.os)
 .note.GNU-stack
                0x0000000000000000        0x0 /home/andrea/Desktop/Star-Os/glibc-2.38/build/libc_pic.a(memcmp-avx2-movbe-rtm.os)
 .note.GNU-stack
                0x0000000000000000        0x0 /home/andrea/Desktop/Star-Os/glibc-2.38/build/libc_pic.a(memcmp-evex-movbe.os)
 .note.GNU-stack
                0x0000000000000000        0x0 /home/andrea/Desktop/Star-Os/glibc-2.38/build/libc_pic.a(memcmp-sse2.os)
 .note.GNU-stack
                0x0000000000000000        0x0 /home/andrea/Desktop/Star-Os/glibc-2.38/build/libc_pic.a(memmove-avx-unaligned-erms.os)
 .note.GNU-stack
                0x0000000000000000        0x0 /home/andrea/Desktop/Star-Os/glibc-2.38/build/libc_pic.a(memmove-avx-unaligned-erms-rtm.os)
 .note.GNU-stack
                0x0000000000000000        0x0 /home/andrea/Desktop/Star-Os/glibc-2.38/build/libc_pic.a(memmove-avx512-no-vzeroupper.os)
 .note.GNU-stack
                0x0000000000000000        0x0 /home/andrea/Desktop/Star-Os/glibc-2.38/build/libc_pic.a(memmove-avx512-unaligned-erms.os)
 .note.GNU-stack
                0x0000000000000000        0x0 /home/andrea/Desktop/Star-Os/glibc-2.38/build/libc_pic.a(memmove-erms.os)
 .note.GNU-stack
                0x0000000000000000        0x0 /home/andrea/Desktop/Star-Os/glibc-2.38/build/libc_pic.a(memmove-evex-unaligned-erms.os)
 .note.GNU-stack
                0x0000000000000000        0x0 /home/andrea/Desktop/Star-Os/glibc-2.38/build/libc_pic.a(memmove-sse2-unaligned-erms.os)
 .note.GNU-stack
                0x0000000000000000        0x0 /home/andrea/Desktop/Star-Os/glibc-2.38/build/libc_pic.a(memmove-ssse3.os)
 .note.GNU-stack
                0x0000000000000000        0x0 /home/andrea/Desktop/Star-Os/glibc-2.38/build/libc_pic.a(memset-avx2-unaligned-erms.os)
 .note.GNU-stack
                0x0000000000000000        0x0 /home/andrea/Desktop/Star-Os/glibc-2.38/build/libc_pic.a(memset-avx2-unaligned-erms-rtm.os)
 .note.GNU-stack
                0x0000000000000000        0x0 /home/andrea/Desktop/Star-Os/glibc-2.38/build/libc_pic.a(memset-avx512-no-vzeroupper.os)
 .note.GNU-stack
                0x0000000000000000        0x0 /home/andrea/Desktop/Star-Os/glibc-2.38/build/libc_pic.a(memset-avx512-unaligned-erms.os)
 .note.GNU-stack
                0x0000000000000000        0x0 /home/andrea/Desktop/Star-Os/glibc-2.38/build/libc_pic.a(memset-erms.os)
 .note.GNU-stack
                0x0000000000000000        0x0 /home/andrea/Desktop/Star-Os/glibc-2.38/build/libc_pic.a(memset-evex-unaligned-erms.os)
 .note.GNU-stack
                0x0000000000000000        0x0 /home/andrea/Desktop/Star-Os/glibc-2.38/build/libc_pic.a(memset-sse2-unaligned-erms.os)
 .note.GNU-stack
                0x0000000000000000        0x0 /home/andrea/Desktop/Star-Os/glibc-2.38/build/libc_pic.a(stpcpy-avx2.os)
 .note.GNU-stack
                0x0000000000000000        0x0 /home/andrea/Desktop/Star-Os/glibc-2.38/build/libc_pic.a(stpcpy-avx2-rtm.os)
 .note.GNU-stack
                0x0000000000000000        0x0 /home/andrea/Desktop/Star-Os/glibc-2.38/build/libc_pic.a(stpcpy-evex.os)
 .note.GNU-stack
                0x0000000000000000        0x0 /home/andrea/Desktop/Star-Os/glibc-2.38/build/libc_pic.a(stpcpy-sse2.os)
 .note.GNU-stack
                0x0000000000000000        0x0 /home/andrea/Desktop/Star-Os/glibc-2.38/build/libc_pic.a(stpcpy-sse2-unaligned.os)
 .note.GNU-stack
                0x0000000000000000        0x0 /home/andrea/Desktop/Star-Os/glibc-2.38/build/libc_pic.a(strchr-avx2.os)
 .note.GNU-stack
                0x0000000000000000        0x0 /home/andrea/Desktop/Star-Os/glibc-2.38/build/libc_pic.a(strchr-avx2-rtm.os)
 .note.GNU-stack
                0x0000000000000000        0x0 /home/andrea/Desktop/Star-Os/glibc-2.38/build/libc_pic.a(strchr-evex.os)
 .note.GNU-stack
                0x0000000000000000        0x0 /home/andrea/Desktop/Star-Os/glibc-2.38/build/libc_pic.a(strchr-sse2.os)
 .note.GNU-stack
                0x0000000000000000        0x0 /home/andrea/Desktop/Star-Os/glibc-2.38/build/libc_pic.a(strchr-sse2-no-bsf.os)
 .note.GNU-stack
                0x0000000000000000        0x0 /home/andrea/Desktop/Star-Os/glibc-2.38/build/libc_pic.a(strcmp-avx2.os)
 .note.GNU-stack
                0x0000000000000000        0x0 /home/andrea/Desktop/Star-Os/glibc-2.38/build/libc_pic.a(strcmp-avx2-rtm.os)
 .note.GNU-stack
                0x0000000000000000        0x0 /home/andrea/Desktop/Star-Os/glibc-2.38/build/libc_pic.a(strcmp-evex.os)
 .note.GNU-stack
                0x0000000000000000        0x0 /home/andrea/Desktop/Star-Os/glibc-2.38/build/libc_pic.a(strcmp-sse2.os)
 .note.GNU-stack
                0x0000000000000000        0x0 /home/andrea/Desktop/Star-Os/glibc-2.38/build/libc_pic.a(strcmp-sse2-unaligned.os)
 .note.GNU-stack
                0x0000000000000000        0x0 /home/andrea/Desktop/Star-Os/glibc-2.38/build/libc_pic.a(strcmp-sse4_2.os)
 .note.GNU-stack
                0x0000000000000000        0x0 /home/andrea/Desktop/Star-Os/glibc-2.38/build/libc_pic.a(strcspn-sse4.os)
 .note.GNU-stack
                0x0000000000000000        0x0 /home/andrea/Desktop/Star-Os/glibc-2.38/build/libc_pic.a(strlen-avx2.os)
 .note.GNU-stack
                0x0000000000000000        0x0 /home/andrea/Desktop/Star-Os/glibc-2.38/build/libc_pic.a(strlen-avx2-rtm.os)
 .note.GNU-stack
                0x0000000000000000        0x0 /home/andrea/Desktop/Star-Os/glibc-2.38/build/libc_pic.a(strlen-evex.os)
 .note.GNU-stack
                0x0000000000000000        0x0 /home/andrea/Desktop/Star-Os/glibc-2.38/build/libc_pic.a(strlen-sse2.os)
 .note.GNU-stack
                0x0000000000000000        0x0 /home/andrea/Desktop/Star-Os/glibc-2.38/build/libc_pic.a(strncmp-avx2.os)
 .note.GNU-stack
                0x0000000000000000        0x0 /home/andrea/Desktop/Star-Os/glibc-2.38/build/libc_pic.a(strncmp-avx2-rtm.os)
 .note.GNU-stack
                0x0000000000000000        0x0 /home/andrea/Desktop/Star-Os/glibc-2.38/build/libc_pic.a(strncmp-evex.os)
 .note.GNU-stack
                0x0000000000000000        0x0 /home/andrea/Desktop/Star-Os/glibc-2.38/build/libc_pic.a(strncmp-sse2.os)
 .note.GNU-stack
                0x0000000000000000        0x0 /home/andrea/Desktop/Star-Os/glibc-2.38/build/libc_pic.a(strncmp-sse4_2.os)
 .note.GNU-stack
                0x0000000000000000        0x0 /home/andrea/Desktop/Star-Os/glibc-2.38/build/libc_pic.a(strnlen-avx2.os)
 .note.GNU-stack
                0x0000000000000000        0x0 /home/andrea/Desktop/Star-Os/glibc-2.38/build/libc_pic.a(strnlen-avx2-rtm.os)
 .note.GNU-stack
                0x0000000000000000        0x0 /home/andrea/Desktop/Star-Os/glibc-2.38/build/libc_pic.a(strnlen-evex.os)
 .note.GNU-stack
                0x0000000000000000        0x0 /home/andrea/Desktop/Star-Os/glibc-2.38/build/libc_pic.a(strnlen-sse2.os)
 .note.GNU-stack
                0x0000000000000000        0x0 /home/andrea/Desktop/Star-Os/glibc-2.38/build/libc_pic.a(varshift.os)
 .note.GNU-stack
                0x0000000000000000        0x0 /home/andrea/Desktop/Star-Os/glibc-2.38/build/libc_pic.a(strcspn-generic.os)
 .note.GNU-stack
                0x0000000000000000        0x0 /home/andrea/Desktop/Star-Os/glibc-2.38/build/libc_pic.a(cacheinfo.os)
 .note.GNU-stack
                0x0000000000000000        0x0 /home/andrea/Desktop/Star-Os/glibc-2.38/build/libc_pic.a(closedir.os)
 .note.GNU-stack
                0x0000000000000000        0x0 /home/andrea/Desktop/Star-Os/glibc-2.38/build/libc_pic.a(rewinddir.os)
 .note.GNU-stack
                0x0000000000000000        0x0 /home/andrea/Desktop/Star-Os/glibc-2.38/build/libc_pic.a(readdir64.os)
 .note.GNU-stack
                0x0000000000000000        0x0 /home/andrea/Desktop/Star-Os/glibc-2.38/build/libc_pic.a(fdopendir.os)
 .note.GNU-stack
                0x0000000000000000        0x0 /home/andrea/Desktop/Star-Os/glibc-2.38/build/libc_pic.a(_exit.os)
 .note.GNU-stack
                0x0000000000000000        0x0 /home/andrea/Desktop/Star-Os/glibc-2.38/build/libc_pic.a(getpid.os)
 .note.GNU-stack
                0x0000000000000000        0x0 /home/andrea/Desktop/Star-Os/glibc-2.38/build/libc_pic.a(uname.os)
 .note.GNU-stack
                0x0000000000000000        0x0 /home/andrea/Desktop/Star-Os/glibc-2.38/build/libc_pic.a(environ.os)
 .note.GNU-stack
                0x0000000000000000        0x0 /home/andrea/Desktop/Star-Os/glibc-2.38/build/libc_pic.a(access.os)
 .note.GNU-stack
                0x0000000000000000        0x0 /home/andrea/Desktop/Star-Os/glibc-2.38/build/libc_pic.a(fstat64.os)
 .note.GNU-stack
                0x0000000000000000        0x0 /home/andrea/Desktop/Star-Os/glibc-2.38/build/libc_pic.a(fstatat64.os)
 .note.GNU-stack
                0x0000000000000000        0x0 /home/andrea/Desktop/Star-Os/glibc-2.38/build/libc_pic.a(lseek64.os)
 .note.GNU-stack
                0x0000000000000000        0x0 /home/andrea/Desktop/Star-Os/glibc-2.38/build/libc_pic.a(lstat64.os)
 .note.GNU-stack
                0x0000000000000000        0x0 /home/andrea/Desktop/Star-Os/glibc-2.38/build/libc_pic.a(openat64.os)
 .note.GNU-stack
                0x0000000000000000        0x0 /home/andrea/Desktop/Star-Os/glibc-2.38/build/libc_pic.a(stat64.os)
 .note.GNU-stack
                0x0000000000000000        0x0 /home/andrea/Desktop/Star-Os/glibc-2.38/build/libc_pic.a(close_nocancel.os)
 .note.GNU-stack
                0x0000000000000000        0x0 /home/andrea/Desktop/Star-Os/glibc-2.38/build/libc_pic.a(fcntl_nocancel.os)
 .note.GNU-stack
                0x0000000000000000        0x0 /home/andrea/Desktop/Star-Os/glibc-2.38/build/libc_pic.a(open64_nocancel.os)
 .note.GNU-stack
                0x0000000000000000        0x0 /home/andrea/Desktop/Star-Os/glibc-2.38/build/libc_pic.a(pread64_nocancel.os)
 .note.GNU-stack
                0x0000000000000000        0x0 /home/andrea/Desktop/Star-Os/glibc-2.38/build/libc_pic.a(read_nocancel.os)
 .note.GNU-stack
                0x0000000000000000        0x0 /home/andrea/Desktop/Star-Os/glibc-2.38/build/libc_pic.a(write_nocancel.os)
 .note.GNU-stack
                0x0000000000000000        0x0 /home/andrea/Desktop/Star-Os/glibc-2.38/build/libc_pic.a(mmap64.os)
 .note.GNU-stack
                0x0000000000000000        0x0 /home/andrea/Desktop/Star-Os/glibc-2.38/build/libc_pic.a(mprotect.os)
 .note.GNU-stack
                0x0000000000000000        0x0 /home/andrea/Desktop/Star-Os/glibc-2.38/build/libc_pic.a(munmap.os)
 .note.GNU-stack
                0x0000000000000000        0x0 /home/andrea/Desktop/Star-Os/glibc-2.38/build/libc_pic.a(single_threaded.os)
 .note.GNU-stack
                0x0000000000000000        0x0 /home/andrea/Desktop/Star-Os/glibc-2.38/build/libc_pic.a(profil.os)
 .note.GNU-stack
                0x0000000000000000        0x0 /home/andrea/Desktop/Star-Os/glibc-2.38/build/libc_pic.a(prof-freq.os)
 .note.GNU-stack
                0x0000000000000000        0x0 /home/andrea/Desktop/Star-Os/glibc-2.38/build/libc_pic.a(dl-addr-obj.os)
 .note.GNU-stack
                0x0000000000000000        0x0 /home/andrea/Desktop/Star-Os/glibc-2.38/build/libc_pic.a(sigaction.os)
 .note.GNU-stack
                0x0000000000000000        0x0 /home/andrea/Desktop/Star-Os/glibc-2.38/build/libc_pic.a(libc_sigaction.os)
 .note.GNU-stack
                0x0000000000000000        0x0 /home/andrea/Desktop/Star-Os/glibc-2.38/build/libc_pic.a(errname.os)
 .note.GNU-stack
                0x0000000000000000        0x0 /home/andrea/Desktop/Star-Os/glibc-2.38/build/libc_pic.a(strchrnul.os)
 .note.GNU-stack
                0x0000000000000000        0x0 /home/andrea/Desktop/Star-Os/glibc-2.38/build/libc_pic.a(strchrnul-avx2.os)
 .note.GNU-stack
                0x0000000000000000        0x0 /home/andrea/Desktop/Star-Os/glibc-2.38/build/libc_pic.a(strchrnul-avx2-rtm.os)
 .note.GNU-stack
                0x0000000000000000        0x0 /home/andrea/Desktop/Star-Os/glibc-2.38/build/libc_pic.a(strchrnul-evex.os)
 .note.GNU-stack
                0x0000000000000000        0x0 /home/andrea/Desktop/Star-Os/glibc-2.38/build/libc_pic.a(strchrnul-sse2.os)
 .note.GNU-stack
                0x0000000000000000        0x0 /home/andrea/Desktop/Star-Os/glibc-2.38/build/libc_pic.a(setitimer.os)
 .note.GNU-stack
                0x0000000000000000        0x0 /home/andrea/Desktop/Star-Os/glibc-2.38/build/libc_pic.a(getdents64.os)

.gnu.build.attributes
 *(.gnu.build.attributes)

.debug
 *(.debug)

.line
 *(.line)

.debug_srcinfo
 *(.debug_srcinfo)

.debug_sfnames
 *(.debug_sfnames)

.debug_aranges  0x0000000000000000     0x20b0
 *(.debug_aranges)
 .debug_aranges
                0x0000000000000000      0xb30 /home/andrea/Desktop/Star-Os/glibc-2.38/build/elf/dl-allobjs.os
 .debug_aranges
                0x0000000000000b30       0x30 /home/andrea/Desktop/Star-Os/glibc-2.38/build/libc_pic.a(check_fds.os)
 .debug_aranges
                0x0000000000000b60       0x20 /home/andrea/Desktop/Star-Os/glibc-2.38/build/libc_pic.a(errno.os)
 .debug_aranges
                0x0000000000000b80       0x30 /home/andrea/Desktop/Star-Os/glibc-2.38/build/libc_pic.a(setjmp.os)
 .debug_aranges
                0x0000000000000bb0       0x30 /home/andrea/Desktop/Star-Os/glibc-2.38/build/libc_pic.a(__longjmp.os)
 .debug_aranges
                0x0000000000000be0       0x30 /home/andrea/Desktop/Star-Os/glibc-2.38/build/libc_pic.a(lowlevellock.os)
 .debug_aranges
                0x0000000000000c10       0x30 /home/andrea/Desktop/Star-Os/glibc-2.38/build/libc_pic.a(scratch_buffer_set_array_size.os)
 .debug_aranges
                0x0000000000000c40       0x30 /home/andrea/Desktop/Star-Os/glibc-2.38/build/libc_pic.a(memchr.os)
 .debug_aranges
                0x0000000000000c70       0x30 /home/andrea/Desktop/Star-Os/glibc-2.38/build/libc_pic.a(memcmp.os)
 .debug_aranges
                0x0000000000000ca0       0x30 /home/andrea/Desktop/Star-Os/glibc-2.38/build/libc_pic.a(memcpy.os)
 .debug_aranges
                0x0000000000000cd0       0x30 /home/andrea/Desktop/Star-Os/glibc-2.38/build/libc_pic.a(memmove.os)
 .debug_aranges
                0x0000000000000d00       0x30 /home/andrea/Desktop/Star-Os/glibc-2.38/build/libc_pic.a(mempcpy.os)
 .debug_aranges
                0x0000000000000d30       0x30 /home/andrea/Desktop/Star-Os/glibc-2.38/build/libc_pic.a(memset.os)
 .debug_aranges
                0x0000000000000d60       0x30 /home/andrea/Desktop/Star-Os/glibc-2.38/build/libc_pic.a(stpcpy.os)
 .debug_aranges
                0x0000000000000d90       0x30 /home/andrea/Desktop/Star-Os/glibc-2.38/build/libc_pic.a(strchr.os)
 .debug_aranges
                0x0000000000000dc0       0x30 /home/andrea/Desktop/Star-Os/glibc-2.38/build/libc_pic.a(strcmp.os)
 .debug_aranges
                0x0000000000000df0       0x30 /home/andrea/Desktop/Star-Os/glibc-2.38/build/libc_pic.a(strcspn.os)
 .debug_aranges
                0x0000000000000e20       0x30 /home/andrea/Desktop/Star-Os/glibc-2.38/build/libc_pic.a(strdup.os)
 .debug_aranges
                0x0000000000000e50       0x30 /home/andrea/Desktop/Star-Os/glibc-2.38/build/libc_pic.a(strerrorname_np.os)
 .debug_aranges
                0x0000000000000e80       0x30 /home/andrea/Desktop/Star-Os/glibc-2.38/build/libc_pic.a(strlen.os)
 .debug_aranges
                0x0000000000000eb0       0x30 /home/andrea/Desktop/Star-Os/glibc-2.38/build/libc_pic.a(strncmp.os)
 .debug_aranges
                0x0000000000000ee0       0x30 /home/andrea/Desktop/Star-Os/glibc-2.38/build/libc_pic.a(strnlen.os)
 .debug_aranges
                0x0000000000000f10       0x30 /home/andrea/Desktop/Star-Os/glibc-2.38/build/libc_pic.a(memchr-avx2.os)
 .debug_aranges
                0x0000000000000f40       0x30 /home/andrea/Desktop/Star-Os/glibc-2.38/build/libc_pic.a(memchr-avx2-rtm.os)
 .debug_aranges
                0x0000000000000f70       0x30 /home/andrea/Desktop/Star-Os/glibc-2.38/build/libc_pic.a(memchr-evex.os)
 .debug_aranges
                0x0000000000000fa0       0x30 /home/andrea/Desktop/Star-Os/glibc-2.38/build/libc_pic.a(memchr-evex-rtm.os)
 .debug_aranges
                0x0000000000000fd0       0x30 /home/andrea/Desktop/Star-Os/glibc-2.38/build/libc_pic.a(memchr-sse2.os)
 .debug_aranges
                0x0000000000001000       0x30 /home/andrea/Desktop/Star-Os/glibc-2.38/build/libc_pic.a(memcmp-avx2-movbe.os)
 .debug_aranges
                0x0000000000001030       0x30 /home/andrea/Desktop/Star-Os/glibc-2.38/build/libc_pic.a(memcmp-avx2-movbe-rtm.os)
 .debug_aranges
                0x0000000000001060       0x30 /home/andrea/Desktop/Star-Os/glibc-2.38/build/libc_pic.a(memcmp-evex-movbe.os)
 .debug_aranges
                0x0000000000001090       0x30 /home/andrea/Desktop/Star-Os/glibc-2.38/build/libc_pic.a(memcmp-sse2.os)
 .debug_aranges
                0x00000000000010c0       0x30 /home/andrea/Desktop/Star-Os/glibc-2.38/build/libc_pic.a(memmove-avx-unaligned-erms.os)
 .debug_aranges
                0x00000000000010f0       0x30 /home/andrea/Desktop/Star-Os/glibc-2.38/build/libc_pic.a(memmove-avx-unaligned-erms-rtm.os)
 .debug_aranges
                0x0000000000001120       0x30 /home/andrea/Desktop/Star-Os/glibc-2.38/build/libc_pic.a(memmove-avx512-no-vzeroupper.os)
 .debug_aranges
                0x0000000000001150       0x30 /home/andrea/Desktop/Star-Os/glibc-2.38/build/libc_pic.a(memmove-avx512-unaligned-erms.os)
 .debug_aranges
                0x0000000000001180       0x30 /home/andrea/Desktop/Star-Os/glibc-2.38/build/libc_pic.a(memmove-erms.os)
 .debug_aranges
                0x00000000000011b0       0x30 /home/andrea/Desktop/Star-Os/glibc-2.38/build/libc_pic.a(memmove-evex-unaligned-erms.os)
 .debug_aranges
                0x00000000000011e0       0x30 /home/andrea/Desktop/Star-Os/glibc-2.38/build/libc_pic.a(memmove-sse2-unaligned-erms.os)
 .debug_aranges
                0x0000000000001210       0x30 /home/andrea/Desktop/Star-Os/glibc-2.38/build/libc_pic.a(memmove-ssse3.os)
 .debug_aranges
                0x0000000000001240       0x30 /home/andrea/Desktop/Star-Os/glibc-2.38/build/libc_pic.a(memset-avx2-unaligned-erms.os)
 .debug_aranges
                0x0000000000001270       0x30 /home/andrea/Desktop/Star-Os/glibc-2.38/build/libc_pic.a(memset-avx2-unaligned-erms-rtm.os)
 .debug_aranges
                0x00000000000012a0       0x30 /home/andrea/Desktop/Star-Os/glibc-2.38/build/libc_pic.a(memset-avx512-no-vzeroupper.os)
 .debug_aranges
                0x00000000000012d0       0x30 /home/andrea/Desktop/Star-Os/glibc-2.38/build/libc_pic.a(memset-avx512-unaligned-erms.os)
 .debug_aranges
                0x0000000000001300       0x30 /home/andrea/Desktop/Star-Os/glibc-2.38/build/libc_pic.a(memset-erms.os)
 .debug_aranges
                0x0000000000001330       0x30 /home/andrea/Desktop/Star-Os/glibc-2.38/build/libc_pic.a(memset-evex-unaligned-erms.os)
 .debug_aranges
                0x0000000000001360       0x30 /home/andrea/Desktop/Star-Os/glibc-2.38/build/libc_pic.a(memset-sse2-unaligned-erms.os)
 .debug_aranges
                0x0000000000001390       0x30 /home/andrea/Desktop/Star-Os/glibc-2.38/build/libc_pic.a(stpcpy-avx2.os)
 .debug_aranges
                0x00000000000013c0       0x30 /home/andrea/Desktop/Star-Os/glibc-2.38/build/libc_pic.a(stpcpy-avx2-rtm.os)
 .debug_aranges
                0x00000000000013f0       0x30 /home/andrea/Desktop/Star-Os/glibc-2.38/build/libc_pic.a(stpcpy-evex.os)
 .debug_aranges
                0x0000000000001420       0x30 /home/andrea/Desktop/Star-Os/glibc-2.38/build/libc_pic.a(stpcpy-sse2.os)
 .debug_aranges
                0x0000000000001450       0x30 /home/andrea/Desktop/Star-Os/glibc-2.38/build/libc_pic.a(stpcpy-sse2-unaligned.os)
 .debug_aranges
                0x0000000000001480       0x30 /home/andrea/Desktop/Star-Os/glibc-2.38/build/libc_pic.a(strchr-avx2.os)
 .debug_aranges
                0x00000000000014b0       0x30 /home/andrea/Desktop/Star-Os/glibc-2.38/build/libc_pic.a(strchr-avx2-rtm.os)
 .debug_aranges
                0x00000000000014e0       0x30 /home/andrea/Desktop/Star-Os/glibc-2.38/build/libc_pic.a(strchr-evex.os)
 .debug_aranges
                0x0000000000001510       0x30 /home/andrea/Desktop/Star-Os/glibc-2.38/build/libc_pic.a(strchr-sse2.os)
 .debug_aranges
                0x0000000000001540       0x30 /home/andrea/Desktop/Star-Os/glibc-2.38/build/libc_pic.a(strchr-sse2-no-bsf.os)
 .debug_aranges
                0x0000000000001570       0x30 /home/andrea/Desktop/Star-Os/glibc-2.38/build/libc_pic.a(strcmp-avx2.os)
 .debug_aranges
                0x00000000000015a0       0x30 /home/andrea/Desktop/Star-Os/glibc-2.38/build/libc_pic.a(strcmp-avx2-rtm.os)
 .debug_aranges
                0x00000000000015d0       0x30 /home/andrea/Desktop/Star-Os/glibc-2.38/build/libc_pic.a(strcmp-evex.os)
 .debug_aranges
                0x0000000000001600       0x30 /home/andrea/Desktop/Star-Os/glibc-2.38/build/libc_pic.a(strcmp-sse2.os)
 .debug_aranges
                0x0000000000001630       0x30 /home/andrea/Desktop/Star-Os/glibc-2.38/build/libc_pic.a(strcmp-sse2-unaligned.os)
 .debug_aranges
                0x0000000000001660       0x30 /home/andrea/Desktop/Star-Os/glibc-2.38/build/libc_pic.a(strcmp-sse4_2.os)
 .debug_aranges
                0x0000000000001690       0x30 /home/andrea/Desktop/Star-Os/glibc-2.38/build/libc_pic.a(strcspn-sse4.os)
 .debug_aranges
                0x00000000000016c0       0x30 /home/andrea/Desktop/Star-Os/glibc-2.38/build/libc_pic.a(strlen-avx2.os)
 .debug_aranges
                0x00000000000016f0       0x30 /home/andrea/Desktop/Star-Os/glibc-2.38/build/libc_pic.a(strlen-avx2-rtm.os)
 .debug_aranges
                0x0000000000001720       0x30 /home/andrea/Desktop/Star-Os/glibc-2.38/build/libc_pic.a(strlen-evex.os)
 .debug_aranges
                0x0000000000001750       0x30 /home/andrea/Desktop/Star-Os/glibc-2.38/build/libc_pic.a(strlen-sse2.os)
 .debug_aranges
                0x0000000000001780       0x30 /home/andrea/Desktop/Star-Os/glibc-2.38/build/libc_pic.a(strncmp-avx2.os)
 .debug_aranges
                0x00000000000017b0       0x30 /home/andrea/Desktop/Star-Os/glibc-2.38/build/libc_pic.a(strncmp-avx2-rtm.os)
 .debug_aranges
                0x00000000000017e0       0x30 /home/andrea/Desktop/Star-Os/glibc-2.38/build/libc_pic.a(strncmp-evex.os)
 .debug_aranges
                0x0000000000001810       0x30 /home/andrea/Desktop/Star-Os/glibc-2.38/build/libc_pic.a(strncmp-sse2.os)
 .debug_aranges
                0x0000000000001840       0x30 /home/andrea/Desktop/Star-Os/glibc-2.38/build/libc_pic.a(strncmp-sse4_2.os)
 .debug_aranges
                0x0000000000001870       0x30 /home/andrea/Desktop/Star-Os/glibc-2.38/build/libc_pic.a(strnlen-avx2.os)
 .debug_aranges
                0x00000000000018a0       0x30 /home/andrea/Desktop/Star-Os/glibc-2.38/build/libc_pic.a(strnlen-avx2-rtm.os)
 .debug_aranges
                0x00000000000018d0       0x30 /home/andrea/Desktop/Star-Os/glibc-2.38/build/libc_pic.a(strnlen-evex.os)
 .debug_aranges
                0x0000000000001900       0x30 /home/andrea/Desktop/Star-Os/glibc-2.38/build/libc_pic.a(strnlen-sse2.os)
 .debug_aranges
                0x0000000000001930       0x20 /home/andrea/Desktop/Star-Os/glibc-2.38/build/libc_pic.a(varshift.os)
 .debug_aranges
                0x0000000000001950       0x30 /home/andrea/Desktop/Star-Os/glibc-2.38/build/libc_pic.a(strcspn-generic.os)
 .debug_aranges
                0x0000000000001980       0x30 /home/andrea/Desktop/Star-Os/glibc-2.38/build/libc_pic.a(cacheinfo.os)
 .debug_aranges
                0x00000000000019b0       0x30 /home/andrea/Desktop/Star-Os/glibc-2.38/build/libc_pic.a(closedir.os)
 .debug_aranges
                0x00000000000019e0       0x30 /home/andrea/Desktop/Star-Os/glibc-2.38/build/libc_pic.a(rewinddir.os)
 .debug_aranges
                0x0000000000001a10       0x30 /home/andrea/Desktop/Star-Os/glibc-2.38/build/libc_pic.a(readdir64.os)
 .debug_aranges
                0x0000000000001a40       0x30 /home/andrea/Desktop/Star-Os/glibc-2.38/build/libc_pic.a(fdopendir.os)
 .debug_aranges
                0x0000000000001a70       0x30 /home/andrea/Desktop/Star-Os/glibc-2.38/build/libc_pic.a(_exit.os)
 .debug_aranges
                0x0000000000001aa0       0x30 /home/andrea/Desktop/Star-Os/glibc-2.38/build/libc_pic.a(getpid.os)
 .debug_aranges
                0x0000000000001ad0       0x30 /home/andrea/Desktop/Star-Os/glibc-2.38/build/libc_pic.a(uname.os)
 .debug_aranges
                0x0000000000001b00       0x20 /home/andrea/Desktop/Star-Os/glibc-2.38/build/libc_pic.a(environ.os)
 .debug_aranges
                0x0000000000001b20       0x30 /home/andrea/Desktop/Star-Os/glibc-2.38/build/libc_pic.a(access.os)
 .debug_aranges
                0x0000000000001b50       0x30 /home/andrea/Desktop/Star-Os/glibc-2.38/build/libc_pic.a(fstat64.os)
 .debug_aranges
                0x0000000000001b80       0x30 /home/andrea/Desktop/Star-Os/glibc-2.38/build/libc_pic.a(fstatat64.os)
 .debug_aranges
                0x0000000000001bb0       0x30 /home/andrea/Desktop/Star-Os/glibc-2.38/build/libc_pic.a(lseek64.os)
 .debug_aranges
                0x0000000000001be0       0x30 /home/andrea/Desktop/Star-Os/glibc-2.38/build/libc_pic.a(lstat64.os)
 .debug_aranges
                0x0000000000001c10       0x30 /home/andrea/Desktop/Star-Os/glibc-2.38/build/libc_pic.a(openat64.os)
 .debug_aranges
                0x0000000000001c40       0x30 /home/andrea/Desktop/Star-Os/glibc-2.38/build/libc_pic.a(stat64.os)
 .debug_aranges
                0x0000000000001c70       0x30 /home/andrea/Desktop/Star-Os/glibc-2.38/build/libc_pic.a(close_nocancel.os)
 .debug_aranges
                0x0000000000001ca0       0x30 /home/andrea/Desktop/Star-Os/glibc-2.38/build/libc_pic.a(fcntl_nocancel.os)
 .debug_aranges
                0x0000000000001cd0       0x30 /home/andrea/Desktop/Star-Os/glibc-2.38/build/libc_pic.a(open64_nocancel.os)
 .debug_aranges
                0x0000000000001d00       0x30 /home/andrea/Desktop/Star-Os/glibc-2.38/build/libc_pic.a(pread64_nocancel.os)
 .debug_aranges
                0x0000000000001d30       0x30 /home/andrea/Desktop/Star-Os/glibc-2.38/build/libc_pic.a(read_nocancel.os)
 .debug_aranges
                0x0000000000001d60       0x30 /home/andrea/Desktop/Star-Os/glibc-2.38/build/libc_pic.a(write_nocancel.os)
 .debug_aranges
                0x0000000000001d90       0x30 /home/andrea/Desktop/Star-Os/glibc-2.38/build/libc_pic.a(mmap64.os)
 .debug_aranges
                0x0000000000001dc0       0x30 /home/andrea/Desktop/Star-Os/glibc-2.38/build/libc_pic.a(mprotect.os)
 .debug_aranges
                0x0000000000001df0       0x30 /home/andrea/Desktop/Star-Os/glibc-2.38/build/libc_pic.a(munmap.os)
 .debug_aranges
                0x0000000000001e20       0x20 /home/andrea/Desktop/Star-Os/glibc-2.38/build/libc_pic.a(single_threaded.os)
 .debug_aranges
                0x0000000000001e40       0x30 /home/andrea/Desktop/Star-Os/glibc-2.38/build/libc_pic.a(profil.os)
 .debug_aranges
                0x0000000000001e70       0x30 /home/andrea/Desktop/Star-Os/glibc-2.38/build/libc_pic.a(prof-freq.os)
 .debug_aranges
                0x0000000000001ea0       0x30 /home/andrea/Desktop/Star-Os/glibc-2.38/build/libc_pic.a(dl-addr-obj.os)
 .debug_aranges
                0x0000000000001ed0       0x30 /home/andrea/Desktop/Star-Os/glibc-2.38/build/libc_pic.a(sigaction.os)
 .debug_aranges
                0x0000000000001f00       0x30 /home/andrea/Desktop/Star-Os/glibc-2.38/build/libc_pic.a(libc_sigaction.os)
 .debug_aranges
                0x0000000000001f30       0x30 /home/andrea/Desktop/Star-Os/glibc-2.38/build/libc_pic.a(errname.os)
 .debug_aranges
                0x0000000000001f60       0x30 /home/andrea/Desktop/Star-Os/glibc-2.38/build/libc_pic.a(strchrnul.os)
 .debug_aranges
                0x0000000000001f90       0x30 /home/andrea/Desktop/Star-Os/glibc-2.38/build/libc_pic.a(strchrnul-avx2.os)
 .debug_aranges
                0x0000000000001fc0       0x30 /home/andrea/Desktop/Star-Os/glibc-2.38/build/libc_pic.a(strchrnul-avx2-rtm.os)
 .debug_aranges
                0x0000000000001ff0       0x30 /home/andrea/Desktop/Star-Os/glibc-2.38/build/libc_pic.a(strchrnul-evex.os)
 .debug_aranges
                0x0000000000002020       0x30 /home/andrea/Desktop/Star-Os/glibc-2.38/build/libc_pic.a(strchrnul-sse2.os)
 .debug_aranges
                0x0000000000002050       0x30 /home/andrea/Desktop/Star-Os/glibc-2.38/build/libc_pic.a(setitimer.os)
 .debug_aranges
                0x0000000000002080       0x30 /home/andrea/Desktop/Star-Os/glibc-2.38/build/libc_pic.a(getdents64.os)

.debug_pubnames
 *(.debug_pubnames)

.debug_info     0x0000000000000000    0xb5652
 *(.debug_info)
 .debug_info    0x0000000000000000    0x89934 /home/andrea/Desktop/Star-Os/glibc-2.38/build/elf/dl-allobjs.os
 .debug_info    0x0000000000089934      0x4c7 /home/andrea/Desktop/Star-Os/glibc-2.38/build/libc_pic.a(check_fds.os)
 .debug_info    0x0000000000089dfb       0xa4 /home/andrea/Desktop/Star-Os/glibc-2.38/build/libc_pic.a(errno.os)
 .debug_info    0x0000000000089e9f       0x48 /home/andrea/Desktop/Star-Os/glibc-2.38/build/libc_pic.a(setjmp.os)
 .debug_info    0x0000000000089ee7       0x3b /home/andrea/Desktop/Star-Os/glibc-2.38/build/libc_pic.a(__longjmp.os)
 .debug_info    0x0000000000089f22      0x620 /home/andrea/Desktop/Star-Os/glibc-2.38/build/libc_pic.a(lowlevellock.os)
 .debug_info    0x000000000008a542      0x308 /home/andrea/Desktop/Star-Os/glibc-2.38/build/libc_pic.a(scratch_buffer_set_array_size.os)
 .debug_info    0x000000000008a84a     0x203c /home/andrea/Desktop/Star-Os/glibc-2.38/build/libc_pic.a(memchr.os)
 .debug_info    0x000000000008c886     0x201e /home/andrea/Desktop/Star-Os/glibc-2.38/build/libc_pic.a(memcmp.os)
 .debug_info    0x000000000008e8a4     0x2136 /home/andrea/Desktop/Star-Os/glibc-2.38/build/libc_pic.a(memcpy.os)
 .debug_info    0x00000000000909da     0x212c /home/andrea/Desktop/Star-Os/glibc-2.38/build/libc_pic.a(memmove.os)
 .debug_info    0x0000000000092b06     0x2136 /home/andrea/Desktop/Star-Os/glibc-2.38/build/libc_pic.a(mempcpy.os)
 .debug_info    0x0000000000094c3c     0x210e /home/andrea/Desktop/Star-Os/glibc-2.38/build/libc_pic.a(memset.os)
 .debug_info    0x0000000000096d4a     0x202d /home/andrea/Desktop/Star-Os/glibc-2.38/build/libc_pic.a(stpcpy.os)
 .debug_info    0x0000000000098d77     0x201e /home/andrea/Desktop/Star-Os/glibc-2.38/build/libc_pic.a(strchr.os)
 .debug_info    0x000000000009ad95     0x203d /home/andrea/Desktop/Star-Os/glibc-2.38/build/libc_pic.a(strcmp.os)
 .debug_info    0x000000000009cdd2     0x1ef2 /home/andrea/Desktop/Star-Os/glibc-2.38/build/libc_pic.a(strcspn.os)
 .debug_info    0x000000000009ecc4      0x1a6 /home/andrea/Desktop/Star-Os/glibc-2.38/build/libc_pic.a(strdup.os)
 .debug_info    0x000000000009ee6a       0xd7 /home/andrea/Desktop/Star-Os/glibc-2.38/build/libc_pic.a(strerrorname_np.os)
 .debug_info    0x000000000009ef41     0x1fec /home/andrea/Desktop/Star-Os/glibc-2.38/build/libc_pic.a(strlen.os)
 .debug_info    0x00000000000a0f2d     0x203c /home/andrea/Desktop/Star-Os/glibc-2.38/build/libc_pic.a(strncmp.os)
 .debug_info    0x00000000000a2f69     0x2005 /home/andrea/Desktop/Star-Os/glibc-2.38/build/libc_pic.a(strnlen.os)
 .debug_info    0x00000000000a4f6e       0x3b /home/andrea/Desktop/Star-Os/glibc-2.38/build/libc_pic.a(memchr-avx2.os)
 .debug_info    0x00000000000a4fa9       0x3b /home/andrea/Desktop/Star-Os/glibc-2.38/build/libc_pic.a(memchr-avx2-rtm.os)
 .debug_info    0x00000000000a4fe4       0x3b /home/andrea/Desktop/Star-Os/glibc-2.38/build/libc_pic.a(memchr-evex.os)
 .debug_info    0x00000000000a501f       0x3b /home/andrea/Desktop/Star-Os/glibc-2.38/build/libc_pic.a(memchr-evex-rtm.os)
 .debug_info    0x00000000000a505a       0x3b /home/andrea/Desktop/Star-Os/glibc-2.38/build/libc_pic.a(memchr-sse2.os)
 .debug_info    0x00000000000a5095       0x3b /home/andrea/Desktop/Star-Os/glibc-2.38/build/libc_pic.a(memcmp-avx2-movbe.os)
 .debug_info    0x00000000000a50d0       0x3b /home/andrea/Desktop/Star-Os/glibc-2.38/build/libc_pic.a(memcmp-avx2-movbe-rtm.os)
 .debug_info    0x00000000000a510b       0x3b /home/andrea/Desktop/Star-Os/glibc-2.38/build/libc_pic.a(memcmp-evex-movbe.os)
 .debug_info    0x00000000000a5146       0x3b /home/andrea/Desktop/Star-Os/glibc-2.38/build/libc_pic.a(memcmp-sse2.os)
 .debug_info    0x00000000000a5181       0xed /home/andrea/Desktop/Star-Os/glibc-2.38/build/libc_pic.a(memmove-avx-unaligned-erms.os)
 .debug_info    0x00000000000a526e       0xed /home/andrea/Desktop/Star-Os/glibc-2.38/build/libc_pic.a(memmove-avx-unaligned-erms-rtm.os)
 .debug_info    0x00000000000a535b       0x8d /home/andrea/Desktop/Star-Os/glibc-2.38/build/libc_pic.a(memmove-avx512-no-vzeroupper.os)
 .debug_info    0x00000000000a53e8       0xed /home/andrea/Desktop/Star-Os/glibc-2.38/build/libc_pic.a(memmove-avx512-unaligned-erms.os)
 .debug_info    0x00000000000a54d5       0x8a /home/andrea/Desktop/Star-Os/glibc-2.38/build/libc_pic.a(memmove-erms.os)
 .debug_info    0x00000000000a555f       0xed /home/andrea/Desktop/Star-Os/glibc-2.38/build/libc_pic.a(memmove-evex-unaligned-erms.os)
 .debug_info    0x00000000000a564c       0xed /home/andrea/Desktop/Star-Os/glibc-2.38/build/libc_pic.a(memmove-sse2-unaligned-erms.os)
 .debug_info    0x00000000000a5739       0x8d /home/andrea/Desktop/Star-Os/glibc-2.38/build/libc_pic.a(memmove-ssse3.os)
 .debug_info    0x00000000000a57c6       0x8c /home/andrea/Desktop/Star-Os/glibc-2.38/build/libc_pic.a(memset-avx2-unaligned-erms.os)
 .debug_info    0x00000000000a5852       0x8c /home/andrea/Desktop/Star-Os/glibc-2.38/build/libc_pic.a(memset-avx2-unaligned-erms-rtm.os)
 .debug_info    0x00000000000a58de       0x4a /home/andrea/Desktop/Star-Os/glibc-2.38/build/libc_pic.a(memset-avx512-no-vzeroupper.os)
 .debug_info    0x00000000000a5928       0x8c /home/andrea/Desktop/Star-Os/glibc-2.38/build/libc_pic.a(memset-avx512-unaligned-erms.os)
 .debug_info    0x00000000000a59b4       0x48 /home/andrea/Desktop/Star-Os/glibc-2.38/build/libc_pic.a(memset-erms.os)
 .debug_info    0x00000000000a59fc       0x8c /home/andrea/Desktop/Star-Os/glibc-2.38/build/libc_pic.a(memset-evex-unaligned-erms.os)
 .debug_info    0x00000000000a5a88       0x8c /home/andrea/Desktop/Star-Os/glibc-2.38/build/libc_pic.a(memset-sse2-unaligned-erms.os)
 .debug_info    0x00000000000a5b14       0x3b /home/andrea/Desktop/Star-Os/glibc-2.38/build/libc_pic.a(stpcpy-avx2.os)
 .debug_info    0x00000000000a5b4f       0x3b /home/andrea/Desktop/Star-Os/glibc-2.38/build/libc_pic.a(stpcpy-avx2-rtm.os)
 .debug_info    0x00000000000a5b8a       0x3b /home/andrea/Desktop/Star-Os/glibc-2.38/build/libc_pic.a(stpcpy-evex.os)
 .debug_info    0x00000000000a5bc5       0x3b /home/andrea/Desktop/Star-Os/glibc-2.38/build/libc_pic.a(stpcpy-sse2.os)
 .debug_info    0x00000000000a5c00       0x3b /home/andrea/Desktop/Star-Os/glibc-2.38/build/libc_pic.a(stpcpy-sse2-unaligned.os)
 .debug_info    0x00000000000a5c3b       0x3b /home/andrea/Desktop/Star-Os/glibc-2.38/build/libc_pic.a(strchr-avx2.os)
 .debug_info    0x00000000000a5c76       0x3b /home/andrea/Desktop/Star-Os/glibc-2.38/build/libc_pic.a(strchr-avx2-rtm.os)
 .debug_info    0x00000000000a5cb1       0x3b /home/andrea/Desktop/Star-Os/glibc-2.38/build/libc_pic.a(strchr-evex.os)
 .debug_info    0x00000000000a5cec       0x3b /home/andrea/Desktop/Star-Os/glibc-2.38/build/libc_pic.a(strchr-sse2.os)
 .debug_info    0x00000000000a5d27       0x3b /home/andrea/Desktop/Star-Os/glibc-2.38/build/libc_pic.a(strchr-sse2-no-bsf.os)
 .debug_info    0x00000000000a5d62       0x3b /home/andrea/Desktop/Star-Os/glibc-2.38/build/libc_pic.a(strcmp-avx2.os)
 .debug_info    0x00000000000a5d9d       0x3b /home/andrea/Desktop/Star-Os/glibc-2.38/build/libc_pic.a(strcmp-avx2-rtm.os)
 .debug_info    0x00000000000a5dd8       0x3b /home/andrea/Desktop/Star-Os/glibc-2.38/build/libc_pic.a(strcmp-evex.os)
 .debug_info    0x00000000000a5e13       0x3b /home/andrea/Desktop/Star-Os/glibc-2.38/build/libc_pic.a(strcmp-sse2.os)
 .debug_info    0x00000000000a5e4e       0x3b /home/andrea/Desktop/Star-Os/glibc-2.38/build/libc_pic.a(strcmp-sse2-unaligned.os)
 .debug_info    0x00000000000a5e89       0x3b /home/andrea/Desktop/Star-Os/glibc-2.38/build/libc_pic.a(strcmp-sse4_2.os)
 .debug_info    0x00000000000a5ec4      0x97a /home/andrea/Desktop/Star-Os/glibc-2.38/build/libc_pic.a(strcspn-sse4.os)
 .debug_info    0x00000000000a683e       0x3b /home/andrea/Desktop/Star-Os/glibc-2.38/build/libc_pic.a(strlen-avx2.os)
 .debug_info    0x00000000000a6879       0x3b /home/andrea/Desktop/Star-Os/glibc-2.38/build/libc_pic.a(strlen-avx2-rtm.os)
 .debug_info    0x00000000000a68b4       0x3b /home/andrea/Desktop/Star-Os/glibc-2.38/build/libc_pic.a(strlen-evex.os)
 .debug_info    0x00000000000a68ef       0x3b /home/andrea/Desktop/Star-Os/glibc-2.38/build/libc_pic.a(strlen-sse2.os)
 .debug_info    0x00000000000a692a       0x3b /home/andrea/Desktop/Star-Os/glibc-2.38/build/libc_pic.a(strncmp-avx2.os)
 .debug_info    0x00000000000a6965       0x3b /home/andrea/Desktop/Star-Os/glibc-2.38/build/libc_pic.a(strncmp-avx2-rtm.os)
 .debug_info    0x00000000000a69a0       0x3b /home/andrea/Desktop/Star-Os/glibc-2.38/build/libc_pic.a(strncmp-evex.os)
 .debug_info    0x00000000000a69db       0x3b /home/andrea/Desktop/Star-Os/glibc-2.38/build/libc_pic.a(strncmp-sse2.os)
 .debug_info    0x00000000000a6a16       0x3b /home/andrea/Desktop/Star-Os/glibc-2.38/build/libc_pic.a(strncmp-sse4_2.os)
 .debug_info    0x00000000000a6a51       0x3b /home/andrea/Desktop/Star-Os/glibc-2.38/build/libc_pic.a(strnlen-avx2.os)
 .debug_info    0x00000000000a6a8c       0x3b /home/andrea/Desktop/Star-Os/glibc-2.38/build/libc_pic.a(strnlen-avx2-rtm.os)
 .debug_info    0x00000000000a6ac7       0x3b /home/andrea/Desktop/Star-Os/glibc-2.38/build/libc_pic.a(strnlen-evex.os)
 .debug_info    0x00000000000a6b02       0x3b /home/andrea/Desktop/Star-Os/glibc-2.38/build/libc_pic.a(strnlen-sse2.os)
 .debug_info    0x00000000000a6b3d       0xa7 /home/andrea/Desktop/Star-Os/glibc-2.38/build/libc_pic.a(varshift.os)
 .debug_info    0x00000000000a6be4      0x207 /home/andrea/Desktop/Star-Os/glibc-2.38/build/libc_pic.a(strcspn-generic.os)
 .debug_info    0x00000000000a6deb     0x26c4 /home/andrea/Desktop/Star-Os/glibc-2.38/build/libc_pic.a(cacheinfo.os)
 .debug_info    0x00000000000a94af      0x1f5 /home/andrea/Desktop/Star-Os/glibc-2.38/build/libc_pic.a(closedir.os)
 .debug_info    0x00000000000a96a4      0x270 /home/andrea/Desktop/Star-Os/glibc-2.38/build/libc_pic.a(rewinddir.os)
 .debug_info    0x00000000000a9914      0x3c7 /home/andrea/Desktop/Star-Os/glibc-2.38/build/libc_pic.a(readdir64.os)
 .debug_info    0x00000000000a9cdb      0x3ff /home/andrea/Desktop/Star-Os/glibc-2.38/build/libc_pic.a(fdopendir.os)
 .debug_info    0x00000000000aa0da      0x110 /home/andrea/Desktop/Star-Os/glibc-2.38/build/libc_pic.a(_exit.os)
 .debug_info    0x00000000000aa1ea       0x6a /home/andrea/Desktop/Star-Os/glibc-2.38/build/libc_pic.a(getpid.os)
 .debug_info    0x00000000000aa254       0x6a /home/andrea/Desktop/Star-Os/glibc-2.38/build/libc_pic.a(uname.os)
 .debug_info    0x00000000000aa2be       0xb2 /home/andrea/Desktop/Star-Os/glibc-2.38/build/libc_pic.a(environ.os)
 .debug_info    0x00000000000aa370      0x14e /home/andrea/Desktop/Star-Os/glibc-2.38/build/libc_pic.a(access.os)
 .debug_info    0x00000000000aa4be      0x2a8 /home/andrea/Desktop/Star-Os/glibc-2.38/build/libc_pic.a(fstat64.os)
 .debug_info    0x00000000000aa766      0x40f /home/andrea/Desktop/Star-Os/glibc-2.38/build/libc_pic.a(fstatat64.os)
 .debug_info    0x00000000000aab75      0x18a /home/andrea/Desktop/Star-Os/glibc-2.38/build/libc_pic.a(lseek64.os)
 .debug_info    0x00000000000aacff      0x29a /home/andrea/Desktop/Star-Os/glibc-2.38/build/libc_pic.a(lstat64.os)
 .debug_info    0x00000000000aaf99      0x385 /home/andrea/Desktop/Star-Os/glibc-2.38/build/libc_pic.a(openat64.os)
 .debug_info    0x00000000000ab31e      0x298 /home/andrea/Desktop/Star-Os/glibc-2.38/build/libc_pic.a(stat64.os)
 .debug_info    0x00000000000ab5b6      0x11f /home/andrea/Desktop/Star-Os/glibc-2.38/build/libc_pic.a(close_nocancel.os)
 .debug_info    0x00000000000ab6d5      0x589 /home/andrea/Desktop/Star-Os/glibc-2.38/build/libc_pic.a(fcntl_nocancel.os)
 .debug_info    0x00000000000abc5e      0x245 /home/andrea/Desktop/Star-Os/glibc-2.38/build/libc_pic.a(open64_nocancel.os)
 .debug_info    0x00000000000abea3      0x1d0 /home/andrea/Desktop/Star-Os/glibc-2.38/build/libc_pic.a(pread64_nocancel.os)
 .debug_info    0x00000000000ac073      0x198 /home/andrea/Desktop/Star-Os/glibc-2.38/build/libc_pic.a(read_nocancel.os)
 .debug_info    0x00000000000ac20b      0x19d /home/andrea/Desktop/Star-Os/glibc-2.38/build/libc_pic.a(write_nocancel.os)
 .debug_info    0x00000000000ac3a8     0x22d2 /home/andrea/Desktop/Star-Os/glibc-2.38/build/libc_pic.a(mmap64.os)
 .debug_info    0x00000000000ae67a       0x6a /home/andrea/Desktop/Star-Os/glibc-2.38/build/libc_pic.a(mprotect.os)
 .debug_info    0x00000000000ae6e4       0x6a /home/andrea/Desktop/Star-Os/glibc-2.38/build/libc_pic.a(munmap.os)
 .debug_info    0x00000000000ae74e       0x57 /home/andrea/Desktop/Star-Os/glibc-2.38/build/libc_pic.a(single_threaded.os)
 .debug_info    0x00000000000ae7a5      0xc40 /home/andrea/Desktop/Star-Os/glibc-2.38/build/libc_pic.a(profil.os)
 .debug_info    0x00000000000af3e5     0x1e08 /home/andrea/Desktop/Star-Os/glibc-2.38/build/libc_pic.a(prof-freq.os)
 .debug_info    0x00000000000b11ed      0xaf2 /home/andrea/Desktop/Star-Os/glibc-2.38/build/libc_pic.a(dl-addr-obj.os)
 .debug_info    0x00000000000b1cdf      0x62b /home/andrea/Desktop/Star-Os/glibc-2.38/build/libc_pic.a(sigaction.os)
 .debug_info    0x00000000000b230a      0x60c /home/andrea/Desktop/Star-Os/glibc-2.38/build/libc_pic.a(libc_sigaction.os)
 .debug_info    0x00000000000b2916      0x89a /home/andrea/Desktop/Star-Os/glibc-2.38/build/libc_pic.a(errname.os)
 .debug_info    0x00000000000b31b0     0x2005 /home/andrea/Desktop/Star-Os/glibc-2.38/build/libc_pic.a(strchrnul.os)
 .debug_info    0x00000000000b51b5       0x3b /home/andrea/Desktop/Star-Os/glibc-2.38/build/libc_pic.a(strchrnul-avx2.os)
 .debug_info    0x00000000000b51f0       0x3b /home/andrea/Desktop/Star-Os/glibc-2.38/build/libc_pic.a(strchrnul-avx2-rtm.os)
 .debug_info    0x00000000000b522b       0x3b /home/andrea/Desktop/Star-Os/glibc-2.38/build/libc_pic.a(strchrnul-evex.os)
 .debug_info    0x00000000000b5266       0x3b /home/andrea/Desktop/Star-Os/glibc-2.38/build/libc_pic.a(strchrnul-sse2.os)
 .debug_info    0x00000000000b52a1      0x225 /home/andrea/Desktop/Star-Os/glibc-2.38/build/libc_pic.a(setitimer.os)
 .debug_info    0x00000000000b54c6      0x18c /home/andrea/Desktop/Star-Os/glibc-2.38/build/libc_pic.a(getdents64.os)

.debug_abbrev   0x0000000000000000    0x18139
 *(.debug_abbrev)
 .debug_abbrev  0x0000000000000000    0x10d14 /home/andrea/Desktop/Star-Os/glibc-2.38/build/elf/dl-allobjs.os
 .debug_abbrev  0x0000000000010d14      0x1bb /home/andrea/Desktop/Star-Os/glibc-2.38/build/libc_pic.a(check_fds.os)
 .debug_abbrev  0x0000000000010ecf       0x57 /home/andrea/Desktop/Star-Os/glibc-2.38/build/libc_pic.a(errno.os)
 .debug_abbrev  0x0000000000010f26       0x28 /home/andrea/Desktop/Star-Os/glibc-2.38/build/libc_pic.a(setjmp.os)
 .debug_abbrev  0x0000000000010f4e       0x28 /home/andrea/Desktop/Star-Os/glibc-2.38/build/libc_pic.a(__longjmp.os)
 .debug_abbrev  0x0000000000010f76      0x1eb /home/andrea/Desktop/Star-Os/glibc-2.38/build/libc_pic.a(lowlevellock.os)
 .debug_abbrev  0x0000000000011161      0x21e /home/andrea/Desktop/Star-Os/glibc-2.38/build/libc_pic.a(scratch_buffer_set_array_size.os)
 .debug_abbrev  0x000000000001137f      0x3a5 /home/andrea/Desktop/Star-Os/glibc-2.38/build/libc_pic.a(memchr.os)
 .debug_abbrev  0x0000000000011724      0x3a5 /home/andrea/Desktop/Star-Os/glibc-2.38/build/libc_pic.a(memcmp.os)
 .debug_abbrev  0x0000000000011ac9      0x3ac /home/andrea/Desktop/Star-Os/glibc-2.38/build/libc_pic.a(memcpy.os)
 .debug_abbrev  0x0000000000011e75      0x3a5 /home/andrea/Desktop/Star-Os/glibc-2.38/build/libc_pic.a(memmove.os)
 .debug_abbrev  0x000000000001221a      0x3ac /home/andrea/Desktop/Star-Os/glibc-2.38/build/libc_pic.a(mempcpy.os)
 .debug_abbrev  0x00000000000125c6      0x3a5 /home/andrea/Desktop/Star-Os/glibc-2.38/build/libc_pic.a(memset.os)
 .debug_abbrev  0x000000000001296b      0x3ab /home/andrea/Desktop/Star-Os/glibc-2.38/build/libc_pic.a(stpcpy.os)
 .debug_abbrev  0x0000000000012d16      0x3a5 /home/andrea/Desktop/Star-Os/glibc-2.38/build/libc_pic.a(strchr.os)
 .debug_abbrev  0x00000000000130bb      0x3a4 /home/andrea/Desktop/Star-Os/glibc-2.38/build/libc_pic.a(strcmp.os)
 .debug_abbrev  0x000000000001345f      0x37b /home/andrea/Desktop/Star-Os/glibc-2.38/build/libc_pic.a(strcspn.os)
 .debug_abbrev  0x00000000000137da      0x108 /home/andrea/Desktop/Star-Os/glibc-2.38/build/libc_pic.a(strdup.os)
 .debug_abbrev  0x00000000000138e2       0x9c /home/andrea/Desktop/Star-Os/glibc-2.38/build/libc_pic.a(strerrorname_np.os)
 .debug_abbrev  0x000000000001397e      0x3a5 /home/andrea/Desktop/Star-Os/glibc-2.38/build/libc_pic.a(strlen.os)
 .debug_abbrev  0x0000000000013d23      0x3a5 /home/andrea/Desktop/Star-Os/glibc-2.38/build/libc_pic.a(strncmp.os)
 .debug_abbrev  0x00000000000140c8      0x3a5 /home/andrea/Desktop/Star-Os/glibc-2.38/build/libc_pic.a(strnlen.os)
 .debug_abbrev  0x000000000001446d       0x28 /home/andrea/Desktop/Star-Os/glibc-2.38/build/libc_pic.a(memchr-avx2.os)
 .debug_abbrev  0x0000000000014495       0x28 /home/andrea/Desktop/Star-Os/glibc-2.38/build/libc_pic.a(memchr-avx2-rtm.os)
 .debug_abbrev  0x00000000000144bd       0x28 /home/andrea/Desktop/Star-Os/glibc-2.38/build/libc_pic.a(memchr-evex.os)
 .debug_abbrev  0x00000000000144e5       0x28 /home/andrea/Desktop/Star-Os/glibc-2.38/build/libc_pic.a(memchr-evex-rtm.os)
 .debug_abbrev  0x000000000001450d       0x28 /home/andrea/Desktop/Star-Os/glibc-2.38/build/libc_pic.a(memchr-sse2.os)
 .debug_abbrev  0x0000000000014535       0x28 /home/andrea/Desktop/Star-Os/glibc-2.38/build/libc_pic.a(memcmp-avx2-movbe.os)
 .debug_abbrev  0x000000000001455d       0x28 /home/andrea/Desktop/Star-Os/glibc-2.38/build/libc_pic.a(memcmp-avx2-movbe-rtm.os)
 .debug_abbrev  0x0000000000014585       0x28 /home/andrea/Desktop/Star-Os/glibc-2.38/build/libc_pic.a(memcmp-evex-movbe.os)
 .debug_abbrev  0x00000000000145ad       0x28 /home/andrea/Desktop/Star-Os/glibc-2.38/build/libc_pic.a(memcmp-sse2.os)
 .debug_abbrev  0x00000000000145d5       0x28 /home/andrea/Desktop/Star-Os/glibc-2.38/build/libc_pic.a(memmove-avx-unaligned-erms.os)
 .debug_abbrev  0x00000000000145fd       0x28 /home/andrea/Desktop/Star-Os/glibc-2.38/build/libc_pic.a(memmove-avx-unaligned-erms-rtm.os)
 .debug_abbrev  0x0000000000014625       0x28 /home/andrea/Desktop/Star-Os/glibc-2.38/build/libc_pic.a(memmove-avx512-no-vzeroupper.os)
 .debug_abbrev  0x000000000001464d       0x28 /home/andrea/Desktop/Star-Os/glibc-2.38/build/libc_pic.a(memmove-avx512-unaligned-erms.os)
 .debug_abbrev  0x0000000000014675       0x28 /home/andrea/Desktop/Star-Os/glibc-2.38/build/libc_pic.a(memmove-erms.os)
 .debug_abbrev  0x000000000001469d       0x28 /home/andrea/Desktop/Star-Os/glibc-2.38/build/libc_pic.a(memmove-evex-unaligned-erms.os)
 .debug_abbrev  0x00000000000146c5       0x28 /home/andrea/Desktop/Star-Os/glibc-2.38/build/libc_pic.a(memmove-sse2-unaligned-erms.os)
 .debug_abbrev  0x00000000000146ed       0x28 /home/andrea/Desktop/Star-Os/glibc-2.38/build/libc_pic.a(memmove-ssse3.os)
 .debug_abbrev  0x0000000000014715       0x28 /home/andrea/Desktop/Star-Os/glibc-2.38/build/libc_pic.a(memset-avx2-unaligned-erms.os)
 .debug_abbrev  0x000000000001473d       0x28 /home/andrea/Desktop/Star-Os/glibc-2.38/build/libc_pic.a(memset-avx2-unaligned-erms-rtm.os)
 .debug_abbrev  0x0000000000014765       0x28 /home/andrea/Desktop/Star-Os/glibc-2.38/build/libc_pic.a(memset-avx512-no-vzeroupper.os)
 .debug_abbrev  0x000000000001478d       0x28 /home/andrea/Desktop/Star-Os/glibc-2.38/build/libc_pic.a(memset-avx512-unaligned-erms.os)
 .debug_abbrev  0x00000000000147b5       0x28 /home/andrea/Desktop/Star-Os/glibc-2.38/build/libc_pic.a(memset-erms.os)
 .debug_abbrev  0x00000000000147dd       0x28 /home/andrea/Desktop/Star-Os/glibc-2.38/build/libc_pic.a(memset-evex-unaligned-erms.os)
 .debug_abbrev  0x0000000000014805       0x28 /home/andrea/Desktop/Star-Os/glibc-2.38/build/libc_pic.a(memset-sse2-unaligned-erms.os)
 .debug_abbrev  0x000000000001482d       0x28 /home/andrea/Desktop/Star-Os/glibc-2.38/build/libc_pic.a(stpcpy-avx2.os)
 .debug_abbrev  0x0000000000014855       0x28 /home/andrea/Desktop/Star-Os/glibc-2.38/build/libc_pic.a(stpcpy-avx2-rtm.os)
 .debug_abbrev  0x000000000001487d       0x28 /home/andrea/Desktop/Star-Os/glibc-2.38/build/libc_pic.a(stpcpy-evex.os)
 .debug_abbrev  0x00000000000148a5       0x28 /home/andrea/Desktop/Star-Os/glibc-2.38/build/libc_pic.a(stpcpy-sse2.os)
 .debug_abbrev  0x00000000000148cd       0x28 /home/andrea/Desktop/Star-Os/glibc-2.38/build/libc_pic.a(stpcpy-sse2-unaligned.os)
 .debug_abbrev  0x00000000000148f5       0x28 /home/andrea/Desktop/Star-Os/glibc-2.38/build/libc_pic.a(strchr-avx2.os)
 .debug_abbrev  0x000000000001491d       0x28 /home/andrea/Desktop/Star-Os/glibc-2.38/build/libc_pic.a(strchr-avx2-rtm.os)
 .debug_abbrev  0x0000000000014945       0x28 /home/andrea/Desktop/Star-Os/glibc-2.38/build/libc_pic.a(strchr-evex.os)
 .debug_abbrev  0x000000000001496d       0x28 /home/andrea/Desktop/Star-Os/glibc-2.38/build/libc_pic.a(strchr-sse2.os)
 .debug_abbrev  0x0000000000014995       0x28 /home/andrea/Desktop/Star-Os/glibc-2.38/build/libc_pic.a(strchr-sse2-no-bsf.os)
 .debug_abbrev  0x00000000000149bd       0x28 /home/andrea/Desktop/Star-Os/glibc-2.38/build/libc_pic.a(strcmp-avx2.os)
 .debug_abbrev  0x00000000000149e5       0x28 /home/andrea/Desktop/Star-Os/glibc-2.38/build/libc_pic.a(strcmp-avx2-rtm.os)
 .debug_abbrev  0x0000000000014a0d       0x28 /home/andrea/Desktop/Star-Os/glibc-2.38/build/libc_pic.a(strcmp-evex.os)
 .debug_abbrev  0x0000000000014a35       0x28 /home/andrea/Desktop/Star-Os/glibc-2.38/build/libc_pic.a(strcmp-sse2.os)
 .debug_abbrev  0x0000000000014a5d       0x28 /home/andrea/Desktop/Star-Os/glibc-2.38/build/libc_pic.a(strcmp-sse2-unaligned.os)
 .debug_abbrev  0x0000000000014a85       0x28 /home/andrea/Desktop/Star-Os/glibc-2.38/build/libc_pic.a(strcmp-sse4_2.os)
 .debug_abbrev  0x0000000000014aad      0x261 /home/andrea/Desktop/Star-Os/glibc-2.38/build/libc_pic.a(strcspn-sse4.os)
 .debug_abbrev  0x0000000000014d0e       0x28 /home/andrea/Desktop/Star-Os/glibc-2.38/build/libc_pic.a(strlen-avx2.os)
 .debug_abbrev  0x0000000000014d36       0x28 /home/andrea/Desktop/Star-Os/glibc-2.38/build/libc_pic.a(strlen-avx2-rtm.os)
 .debug_abbrev  0x0000000000014d5e       0x28 /home/andrea/Desktop/Star-Os/glibc-2.38/build/libc_pic.a(strlen-evex.os)
 .debug_abbrev  0x0000000000014d86       0x28 /home/andrea/Desktop/Star-Os/glibc-2.38/build/libc_pic.a(strlen-sse2.os)
 .debug_abbrev  0x0000000000014dae       0x28 /home/andrea/Desktop/Star-Os/glibc-2.38/build/libc_pic.a(strncmp-avx2.os)
 .debug_abbrev  0x0000000000014dd6       0x28 /home/andrea/Desktop/Star-Os/glibc-2.38/build/libc_pic.a(strncmp-avx2-rtm.os)
 .debug_abbrev  0x0000000000014dfe       0x28 /home/andrea/Desktop/Star-Os/glibc-2.38/build/libc_pic.a(strncmp-evex.os)
 .debug_abbrev  0x0000000000014e26       0x28 /home/andrea/Desktop/Star-Os/glibc-2.38/build/libc_pic.a(strncmp-sse2.os)
 .debug_abbrev  0x0000000000014e4e       0x28 /home/andrea/Desktop/Star-Os/glibc-2.38/build/libc_pic.a(strncmp-sse4_2.os)
 .debug_abbrev  0x0000000000014e76       0x28 /home/andrea/Desktop/Star-Os/glibc-2.38/build/libc_pic.a(strnlen-avx2.os)
 .debug_abbrev  0x0000000000014e9e       0x28 /home/andrea/Desktop/Star-Os/glibc-2.38/build/libc_pic.a(strnlen-avx2-rtm.os)
 .debug_abbrev  0x0000000000014ec6       0x28 /home/andrea/Desktop/Star-Os/glibc-2.38/build/libc_pic.a(strnlen-evex.os)
 .debug_abbrev  0x0000000000014eee       0x28 /home/andrea/Desktop/Star-Os/glibc-2.38/build/libc_pic.a(strnlen-sse2.os)
 .debug_abbrev  0x0000000000014f16       0x64 /home/andrea/Desktop/Star-Os/glibc-2.38/build/libc_pic.a(varshift.os)
 .debug_abbrev  0x0000000000014f7a      0x116 /home/andrea/Desktop/Star-Os/glibc-2.38/build/libc_pic.a(strcspn-generic.os)
 .debug_abbrev  0x0000000000015090      0x3d8 /home/andrea/Desktop/Star-Os/glibc-2.38/build/libc_pic.a(cacheinfo.os)
 .debug_abbrev  0x0000000000015468      0x163 /home/andrea/Desktop/Star-Os/glibc-2.38/build/libc_pic.a(closedir.os)
 .debug_abbrev  0x00000000000155cb      0x157 /home/andrea/Desktop/Star-Os/glibc-2.38/build/libc_pic.a(rewinddir.os)
 .debug_abbrev  0x0000000000015722      0x19c /home/andrea/Desktop/Star-Os/glibc-2.38/build/libc_pic.a(readdir64.os)
 .debug_abbrev  0x00000000000158be      0x194 /home/andrea/Desktop/Star-Os/glibc-2.38/build/libc_pic.a(fdopendir.os)
 .debug_abbrev  0x0000000000015a52       0x9b /home/andrea/Desktop/Star-Os/glibc-2.38/build/libc_pic.a(_exit.os)
 .debug_abbrev  0x0000000000015aed       0x28 /home/andrea/Desktop/Star-Os/glibc-2.38/build/libc_pic.a(getpid.os)
 .debug_abbrev  0x0000000000015b15       0x28 /home/andrea/Desktop/Star-Os/glibc-2.38/build/libc_pic.a(uname.os)
 .debug_abbrev  0x0000000000015b3d       0x72 /home/andrea/Desktop/Star-Os/glibc-2.38/build/libc_pic.a(environ.os)
 .debug_abbrev  0x0000000000015baf       0xb8 /home/andrea/Desktop/Star-Os/glibc-2.38/build/libc_pic.a(access.os)
 .debug_abbrev  0x0000000000015c67       0xfb /home/andrea/Desktop/Star-Os/glibc-2.38/build/libc_pic.a(fstat64.os)
 .debug_abbrev  0x0000000000015d62      0x1ae /home/andrea/Desktop/Star-Os/glibc-2.38/build/libc_pic.a(fstatat64.os)
 .debug_abbrev  0x0000000000015f10       0xd8 /home/andrea/Desktop/Star-Os/glibc-2.38/build/libc_pic.a(lseek64.os)
 .debug_abbrev  0x0000000000015fe8       0xfa /home/andrea/Desktop/Star-Os/glibc-2.38/build/libc_pic.a(lstat64.os)
 .debug_abbrev  0x00000000000160e2      0x176 /home/andrea/Desktop/Star-Os/glibc-2.38/build/libc_pic.a(openat64.os)
 .debug_abbrev  0x0000000000016258       0xfa /home/andrea/Desktop/Star-Os/glibc-2.38/build/libc_pic.a(stat64.os)
 .debug_abbrev  0x0000000000016352       0xa3 /home/andrea/Desktop/Star-Os/glibc-2.38/build/libc_pic.a(close_nocancel.os)
 .debug_abbrev  0x00000000000163f5      0x202 /home/andrea/Desktop/Star-Os/glibc-2.38/build/libc_pic.a(fcntl_nocancel.os)
 .debug_abbrev  0x00000000000165f7      0x119 /home/andrea/Desktop/Star-Os/glibc-2.38/build/libc_pic.a(open64_nocancel.os)
 .debug_abbrev  0x0000000000016710       0xcb /home/andrea/Desktop/Star-Os/glibc-2.38/build/libc_pic.a(pread64_nocancel.os)
 .debug_abbrev  0x00000000000167db       0xd2 /home/andrea/Desktop/Star-Os/glibc-2.38/build/libc_pic.a(read_nocancel.os)
 .debug_abbrev  0x00000000000168ad       0xd9 /home/andrea/Desktop/Star-Os/glibc-2.38/build/libc_pic.a(write_nocancel.os)
 .debug_abbrev  0x0000000000016986      0x402 /home/andrea/Desktop/Star-Os/glibc-2.38/build/libc_pic.a(mmap64.os)
 .debug_abbrev  0x0000000000016d88       0x28 /home/andrea/Desktop/Star-Os/glibc-2.38/build/libc_pic.a(mprotect.os)
 .debug_abbrev  0x0000000000016db0       0x28 /home/andrea/Desktop/Star-Os/glibc-2.38/build/libc_pic.a(munmap.os)
 .debug_abbrev  0x0000000000016dd8       0x48 /home/andrea/Desktop/Star-Os/glibc-2.38/build/libc_pic.a(single_threaded.os)
 .debug_abbrev  0x0000000000016e20      0x2fd /home/andrea/Desktop/Star-Os/glibc-2.38/build/libc_pic.a(profil.os)
 .debug_abbrev  0x000000000001711d      0x314 /home/andrea/Desktop/Star-Os/glibc-2.38/build/libc_pic.a(prof-freq.os)
 .debug_abbrev  0x0000000000017431      0x215 /home/andrea/Desktop/Star-Os/glibc-2.38/build/libc_pic.a(dl-addr-obj.os)
 .debug_abbrev  0x0000000000017646      0x1cb /home/andrea/Desktop/Star-Os/glibc-2.38/build/libc_pic.a(sigaction.os)
 .debug_abbrev  0x0000000000017811      0x1da /home/andrea/Desktop/Star-Os/glibc-2.38/build/libc_pic.a(libc_sigaction.os)
 .debug_abbrev  0x00000000000179eb      0x11d /home/andrea/Desktop/Star-Os/glibc-2.38/build/libc_pic.a(errname.os)
 .debug_abbrev  0x0000000000017b08      0x3a5 /home/andrea/Desktop/Star-Os/glibc-2.38/build/libc_pic.a(strchrnul.os)
 .debug_abbrev  0x0000000000017ead       0x28 /home/andrea/Desktop/Star-Os/glibc-2.38/build/libc_pic.a(strchrnul-avx2.os)
 .debug_abbrev  0x0000000000017ed5       0x28 /home/andrea/Desktop/Star-Os/glibc-2.38/build/libc_pic.a(strchrnul-avx2-rtm.os)
 .debug_abbrev  0x0000000000017efd       0x28 /home/andrea/Desktop/Star-Os/glibc-2.38/build/libc_pic.a(strchrnul-evex.os)
 .debug_abbrev  0x0000000000017f25       0x28 /home/andrea/Desktop/Star-Os/glibc-2.38/build/libc_pic.a(strchrnul-sse2.os)
 .debug_abbrev  0x0000000000017f4d      0x123 /home/andrea/Desktop/Star-Os/glibc-2.38/build/libc_pic.a(setitimer.os)
 .debug_abbrev  0x0000000000018070       0xc9 /home/andrea/Desktop/Star-Os/glibc-2.38/build/libc_pic.a(getdents64.os)

.debug_line     0x0000000000000000    0x2867f
 *(.debug_line)
 .debug_line    0x0000000000000000    0x1fbfe /home/andrea/Desktop/Star-Os/glibc-2.38/build/elf/dl-allobjs.os
 .debug_line    0x000000000001fbfe      0x134 /home/andrea/Desktop/Star-Os/glibc-2.38/build/libc_pic.a(check_fds.os)
 .debug_line    0x000000000001fd32       0x3f /home/andrea/Desktop/Star-Os/glibc-2.38/build/libc_pic.a(errno.os)
 .debug_line    0x000000000001fd71       0x64 /home/andrea/Desktop/Star-Os/glibc-2.38/build/libc_pic.a(setjmp.os)
 .debug_line    0x000000000001fdd5       0x6e /home/andrea/Desktop/Star-Os/glibc-2.38/build/libc_pic.a(__longjmp.os)
 .debug_line    0x000000000001fe43      0x1ba /home/andrea/Desktop/Star-Os/glibc-2.38/build/libc_pic.a(lowlevellock.os)
 .debug_line    0x000000000001fffd      0x16d /home/andrea/Desktop/Star-Os/glibc-2.38/build/libc_pic.a(scratch_buffer_set_array_size.os)
 .debug_line    0x000000000002016a      0x168 /home/andrea/Desktop/Star-Os/glibc-2.38/build/libc_pic.a(memchr.os)
 .debug_line    0x00000000000202d2      0x156 /home/andrea/Desktop/Star-Os/glibc-2.38/build/libc_pic.a(memcmp.os)
 .debug_line    0x0000000000020428      0x1a8 /home/andrea/Desktop/Star-Os/glibc-2.38/build/libc_pic.a(memcpy.os)
 .debug_line    0x00000000000205d0      0x1a8 /home/andrea/Desktop/Star-Os/glibc-2.38/build/libc_pic.a(memmove.os)
 .debug_line    0x0000000000020778      0x1a8 /home/andrea/Desktop/Star-Os/glibc-2.38/build/libc_pic.a(mempcpy.os)
 .debug_line    0x0000000000020920      0x1a6 /home/andrea/Desktop/Star-Os/glibc-2.38/build/libc_pic.a(memset.os)
 .debug_line    0x0000000000020ac6      0x15a /home/andrea/Desktop/Star-Os/glibc-2.38/build/libc_pic.a(stpcpy.os)
 .debug_line    0x0000000000020c20      0x15d /home/andrea/Desktop/Star-Os/glibc-2.38/build/libc_pic.a(strchr.os)
 .debug_line    0x0000000000020d7d      0x168 /home/andrea/Desktop/Star-Os/glibc-2.38/build/libc_pic.a(strcmp.os)
 .debug_line    0x0000000000020ee5      0x12b /home/andrea/Desktop/Star-Os/glibc-2.38/build/libc_pic.a(strcspn.os)
 .debug_line    0x0000000000021010       0xa7 /home/andrea/Desktop/Star-Os/glibc-2.38/build/libc_pic.a(strdup.os)
 .debug_line    0x00000000000210b7       0x5d /home/andrea/Desktop/Star-Os/glibc-2.38/build/libc_pic.a(strerrorname_np.os)
 .debug_line    0x0000000000021114      0x158 /home/andrea/Desktop/Star-Os/glibc-2.38/build/libc_pic.a(strlen.os)
 .debug_line    0x000000000002126c      0x157 /home/andrea/Desktop/Star-Os/glibc-2.38/build/libc_pic.a(strncmp.os)
 .debug_line    0x00000000000213c3      0x158 /home/andrea/Desktop/Star-Os/glibc-2.38/build/libc_pic.a(strnlen.os)
 .debug_line    0x000000000002151b      0x102 /home/andrea/Desktop/Star-Os/glibc-2.38/build/libc_pic.a(memchr-avx2.os)
 .debug_line    0x000000000002161d      0x103 /home/andrea/Desktop/Star-Os/glibc-2.38/build/libc_pic.a(memchr-avx2-rtm.os)
 .debug_line    0x0000000000021720      0x117 /home/andrea/Desktop/Star-Os/glibc-2.38/build/libc_pic.a(memchr-evex.os)
 .debug_line    0x0000000000021837      0x110 /home/andrea/Desktop/Star-Os/glibc-2.38/build/libc_pic.a(memchr-evex-rtm.os)
 .debug_line    0x0000000000021947      0x119 /home/andrea/Desktop/Star-Os/glibc-2.38/build/libc_pic.a(memchr-sse2.os)
 .debug_line    0x0000000000021a60      0x13f /home/andrea/Desktop/Star-Os/glibc-2.38/build/libc_pic.a(memcmp-avx2-movbe.os)
 .debug_line    0x0000000000021b9f      0x13f /home/andrea/Desktop/Star-Os/glibc-2.38/build/libc_pic.a(memcmp-avx2-movbe-rtm.os)
 .debug_line    0x0000000000021cde       0xfc /home/andrea/Desktop/Star-Os/glibc-2.38/build/libc_pic.a(memcmp-evex-movbe.os)
 .debug_line    0x0000000000021dda      0x139 /home/andrea/Desktop/Star-Os/glibc-2.38/build/libc_pic.a(memcmp-sse2.os)
 .debug_line    0x0000000000021f13      0x1ae /home/andrea/Desktop/Star-Os/glibc-2.38/build/libc_pic.a(memmove-avx-unaligned-erms.os)
 .debug_line    0x00000000000220c1      0x1ae /home/andrea/Desktop/Star-Os/glibc-2.38/build/libc_pic.a(memmove-avx-unaligned-erms-rtm.os)
 .debug_line    0x000000000002226f      0x198 /home/andrea/Desktop/Star-Os/glibc-2.38/build/libc_pic.a(memmove-avx512-no-vzeroupper.os)
 .debug_line    0x0000000000022407      0x1b7 /home/andrea/Desktop/Star-Os/glibc-2.38/build/libc_pic.a(memmove-avx512-unaligned-erms.os)
 .debug_line    0x00000000000225be       0x6c /home/andrea/Desktop/Star-Os/glibc-2.38/build/libc_pic.a(memmove-erms.os)
 .debug_line    0x000000000002262a      0x1b8 /home/andrea/Desktop/Star-Os/glibc-2.38/build/libc_pic.a(memmove-evex-unaligned-erms.os)
 .debug_line    0x00000000000227e2      0x18e /home/andrea/Desktop/Star-Os/glibc-2.38/build/libc_pic.a(memmove-sse2-unaligned-erms.os)
 .debug_line    0x0000000000022970      0x16e /home/andrea/Desktop/Star-Os/glibc-2.38/build/libc_pic.a(memmove-ssse3.os)
 .debug_line    0x0000000000022ade       0xc4 /home/andrea/Desktop/Star-Os/glibc-2.38/build/libc_pic.a(memset-avx2-unaligned-erms.os)
 .debug_line    0x0000000000022ba2       0xc4 /home/andrea/Desktop/Star-Os/glibc-2.38/build/libc_pic.a(memset-avx2-unaligned-erms-rtm.os)
 .debug_line    0x0000000000022c66       0xcd /home/andrea/Desktop/Star-Os/glibc-2.38/build/libc_pic.a(memset-avx512-no-vzeroupper.os)
 .debug_line    0x0000000000022d33       0xc2 /home/andrea/Desktop/Star-Os/glibc-2.38/build/libc_pic.a(memset-avx512-unaligned-erms.os)
 .debug_line    0x0000000000022df5       0x5a /home/andrea/Desktop/Star-Os/glibc-2.38/build/libc_pic.a(memset-erms.os)
 .debug_line    0x0000000000022e4f       0xbe /home/andrea/Desktop/Star-Os/glibc-2.38/build/libc_pic.a(memset-evex-unaligned-erms.os)
 .debug_line    0x0000000000022f0d       0xbc /home/andrea/Desktop/Star-Os/glibc-2.38/build/libc_pic.a(memset-sse2-unaligned-erms.os)
 .debug_line    0x0000000000022fc9       0xdf /home/andrea/Desktop/Star-Os/glibc-2.38/build/libc_pic.a(stpcpy-avx2.os)
 .debug_line    0x00000000000230a8       0xdf /home/andrea/Desktop/Star-Os/glibc-2.38/build/libc_pic.a(stpcpy-avx2-rtm.os)
 .debug_line    0x0000000000023187       0xea /home/andrea/Desktop/Star-Os/glibc-2.38/build/libc_pic.a(stpcpy-evex.os)
 .debug_line    0x0000000000023271       0x96 /home/andrea/Desktop/Star-Os/glibc-2.38/build/libc_pic.a(stpcpy-sse2.os)
 .debug_line    0x0000000000023307      0x1c9 /home/andrea/Desktop/Star-Os/glibc-2.38/build/libc_pic.a(stpcpy-sse2-unaligned.os)
 .debug_line    0x00000000000234d0       0xdf /home/andrea/Desktop/Star-Os/glibc-2.38/build/libc_pic.a(strchr-avx2.os)
 .debug_line    0x00000000000235af       0xe0 /home/andrea/Desktop/Star-Os/glibc-2.38/build/libc_pic.a(strchr-avx2-rtm.os)
 .debug_line    0x000000000002368f       0xcf /home/andrea/Desktop/Star-Os/glibc-2.38/build/libc_pic.a(strchr-evex.os)
 .debug_line    0x000000000002375e       0xd2 /home/andrea/Desktop/Star-Os/glibc-2.38/build/libc_pic.a(strchr-sse2.os)
 .debug_line    0x0000000000023830       0xfb /home/andrea/Desktop/Star-Os/glibc-2.38/build/libc_pic.a(strchr-sse2-no-bsf.os)
 .debug_line    0x000000000002392b      0x1e4 /home/andrea/Desktop/Star-Os/glibc-2.38/build/libc_pic.a(strcmp-avx2.os)
 .debug_line    0x0000000000023b0f      0x1e4 /home/andrea/Desktop/Star-Os/glibc-2.38/build/libc_pic.a(strcmp-avx2-rtm.os)
 .debug_line    0x0000000000023cf3      0x1e1 /home/andrea/Desktop/Star-Os/glibc-2.38/build/libc_pic.a(strcmp-evex.os)
 .debug_line    0x0000000000023ed4      0x491 /home/andrea/Desktop/Star-Os/glibc-2.38/build/libc_pic.a(strcmp-sse2.os)
 .debug_line    0x0000000000024365       0xf3 /home/andrea/Desktop/Star-Os/glibc-2.38/build/libc_pic.a(strcmp-sse2-unaligned.os)
 .debug_line    0x0000000000024458      0x30e /home/andrea/Desktop/Star-Os/glibc-2.38/build/libc_pic.a(strcmp-sse4_2.os)
 .debug_line    0x0000000000024766      0x3c7 /home/andrea/Desktop/Star-Os/glibc-2.38/build/libc_pic.a(strcspn-sse4.os)
 .debug_line    0x0000000000024b2d       0xc6 /home/andrea/Desktop/Star-Os/glibc-2.38/build/libc_pic.a(strlen-avx2.os)
 .debug_line    0x0000000000024bf3       0xc5 /home/andrea/Desktop/Star-Os/glibc-2.38/build/libc_pic.a(strlen-avx2-rtm.os)
 .debug_line    0x0000000000024cb8       0xa2 /home/andrea/Desktop/Star-Os/glibc-2.38/build/libc_pic.a(strlen-evex.os)
 .debug_line    0x0000000000024d5a       0x98 /home/andrea/Desktop/Star-Os/glibc-2.38/build/libc_pic.a(strlen-sse2.os)
 .debug_line    0x0000000000024df2      0x222 /home/andrea/Desktop/Star-Os/glibc-2.38/build/libc_pic.a(strncmp-avx2.os)
 .debug_line    0x0000000000025014      0x222 /home/andrea/Desktop/Star-Os/glibc-2.38/build/libc_pic.a(strncmp-avx2-rtm.os)
 .debug_line    0x0000000000025236      0x220 /home/andrea/Desktop/Star-Os/glibc-2.38/build/libc_pic.a(strncmp-evex.os)
 .debug_line    0x0000000000025456      0x527 /home/andrea/Desktop/Star-Os/glibc-2.38/build/libc_pic.a(strncmp-sse2.os)
 .debug_line    0x000000000002597d      0x38a /home/andrea/Desktop/Star-Os/glibc-2.38/build/libc_pic.a(strncmp-sse4_2.os)
 .debug_line    0x0000000000025d07      0x121 /home/andrea/Desktop/Star-Os/glibc-2.38/build/libc_pic.a(strnlen-avx2.os)
 .debug_line    0x0000000000025e28      0x123 /home/andrea/Desktop/Star-Os/glibc-2.38/build/libc_pic.a(strnlen-avx2-rtm.os)
 .debug_line    0x0000000000025f4b       0xec /home/andrea/Desktop/Star-Os/glibc-2.38/build/libc_pic.a(strnlen-evex.os)
 .debug_line    0x0000000000026037       0x9c /home/andrea/Desktop/Star-Os/glibc-2.38/build/libc_pic.a(strnlen-sse2.os)
 .debug_line    0x00000000000260d3       0x4c /home/andrea/Desktop/Star-Os/glibc-2.38/build/libc_pic.a(varshift.os)
 .debug_line    0x000000000002611f      0x191 /home/andrea/Desktop/Star-Os/glibc-2.38/build/libc_pic.a(strcspn-generic.os)
 .debug_line    0x00000000000262b0      0x21e /home/andrea/Desktop/Star-Os/glibc-2.38/build/libc_pic.a(cacheinfo.os)
 .debug_line    0x00000000000264ce       0xd1 /home/andrea/Desktop/Star-Os/glibc-2.38/build/libc_pic.a(closedir.os)
 .debug_line    0x000000000002659f      0x13d /home/andrea/Desktop/Star-Os/glibc-2.38/build/libc_pic.a(rewinddir.os)
 .debug_line    0x00000000000266dc      0x1db /home/andrea/Desktop/Star-Os/glibc-2.38/build/libc_pic.a(readdir64.os)
 .debug_line    0x00000000000268b7      0x11a /home/andrea/Desktop/Star-Os/glibc-2.38/build/libc_pic.a(fdopendir.os)
 .debug_line    0x00000000000269d1       0x8b /home/andrea/Desktop/Star-Os/glibc-2.38/build/libc_pic.a(_exit.os)
 .debug_line    0x0000000000026a5c       0x4f /home/andrea/Desktop/Star-Os/glibc-2.38/build/libc_pic.a(getpid.os)
 .debug_line    0x0000000000026aab       0x50 /home/andrea/Desktop/Star-Os/glibc-2.38/build/libc_pic.a(uname.os)
 .debug_line    0x0000000000026afb       0x3f /home/andrea/Desktop/Star-Os/glibc-2.38/build/libc_pic.a(environ.os)
 .debug_line    0x0000000000026b3a       0x8d /home/andrea/Desktop/Star-Os/glibc-2.38/build/libc_pic.a(access.os)
 .debug_line    0x0000000000026bc7       0x9b /home/andrea/Desktop/Star-Os/glibc-2.38/build/libc_pic.a(fstat64.os)
 .debug_line    0x0000000000026c62       0xc6 /home/andrea/Desktop/Star-Os/glibc-2.38/build/libc_pic.a(fstatat64.os)
 .debug_line    0x0000000000026d28       0xa8 /home/andrea/Desktop/Star-Os/glibc-2.38/build/libc_pic.a(lseek64.os)
 .debug_line    0x0000000000026dd0       0x81 /home/andrea/Desktop/Star-Os/glibc-2.38/build/libc_pic.a(lstat64.os)
 .debug_line    0x0000000000026e51      0x1ed /home/andrea/Desktop/Star-Os/glibc-2.38/build/libc_pic.a(openat64.os)
 .debug_line    0x000000000002703e       0x81 /home/andrea/Desktop/Star-Os/glibc-2.38/build/libc_pic.a(stat64.os)
 .debug_line    0x00000000000270bf       0x8b /home/andrea/Desktop/Star-Os/glibc-2.38/build/libc_pic.a(close_nocancel.os)
 .debug_line    0x000000000002714a      0x182 /home/andrea/Desktop/Star-Os/glibc-2.38/build/libc_pic.a(fcntl_nocancel.os)
 .debug_line    0x00000000000272cc       0xd2 /home/andrea/Desktop/Star-Os/glibc-2.38/build/libc_pic.a(open64_nocancel.os)
 .debug_line    0x000000000002739e       0xb8 /home/andrea/Desktop/Star-Os/glibc-2.38/build/libc_pic.a(pread64_nocancel.os)
 .debug_line    0x0000000000027456       0xaf /home/andrea/Desktop/Star-Os/glibc-2.38/build/libc_pic.a(read_nocancel.os)
 .debug_line    0x0000000000027505       0xaf /home/andrea/Desktop/Star-Os/glibc-2.38/build/libc_pic.a(write_nocancel.os)
 .debug_line    0x00000000000275b4      0x238 /home/andrea/Desktop/Star-Os/glibc-2.38/build/libc_pic.a(mmap64.os)
 .debug_line    0x00000000000277ec       0x50 /home/andrea/Desktop/Star-Os/glibc-2.38/build/libc_pic.a(mprotect.os)
 .debug_line    0x000000000002783c       0x50 /home/andrea/Desktop/Star-Os/glibc-2.38/build/libc_pic.a(munmap.os)
 .debug_line    0x000000000002788c       0x48 /home/andrea/Desktop/Star-Os/glibc-2.38/build/libc_pic.a(single_threaded.os)
 .debug_line    0x00000000000278d4      0x28e /home/andrea/Desktop/Star-Os/glibc-2.38/build/libc_pic.a(profil.os)
 .debug_line    0x0000000000027b62      0x113 /home/andrea/Desktop/Star-Os/glibc-2.38/build/libc_pic.a(prof-freq.os)
 .debug_line    0x0000000000027c75       0xf5 /home/andrea/Desktop/Star-Os/glibc-2.38/build/libc_pic.a(dl-addr-obj.os)
 .debug_line    0x0000000000027d6a       0xd6 /home/andrea/Desktop/Star-Os/glibc-2.38/build/libc_pic.a(sigaction.os)
 .debug_line    0x0000000000027e40      0x1d6 /home/andrea/Desktop/Star-Os/glibc-2.38/build/libc_pic.a(libc_sigaction.os)
 .debug_line    0x0000000000028016       0x7e /home/andrea/Desktop/Star-Os/glibc-2.38/build/libc_pic.a(errname.os)
 .debug_line    0x0000000000028094      0x158 /home/andrea/Desktop/Star-Os/glibc-2.38/build/libc_pic.a(strchrnul.os)
 .debug_line    0x00000000000281ec       0xce /home/andrea/Desktop/Star-Os/glibc-2.38/build/libc_pic.a(strchrnul-avx2.os)
 .debug_line    0x00000000000282ba       0xce /home/andrea/Desktop/Star-Os/glibc-2.38/build/libc_pic.a(strchrnul-avx2-rtm.os)
 .debug_line    0x0000000000028388       0xc4 /home/andrea/Desktop/Star-Os/glibc-2.38/build/libc_pic.a(strchrnul-evex.os)
 .debug_line    0x000000000002844c       0xcc /home/andrea/Desktop/Star-Os/glibc-2.38/build/libc_pic.a(strchrnul-sse2.os)
 .debug_line    0x0000000000028518       0xb5 /home/andrea/Desktop/Star-Os/glibc-2.38/build/libc_pic.a(setitimer.os)
 .debug_line    0x00000000000285cd       0xb2 /home/andrea/Desktop/Star-Os/glibc-2.38/build/libc_pic.a(getdents64.os)

.debug_frame
 *(.debug_frame)

.debug_str      0x0000000000000000    0x75339
 *(.debug_str)
 .debug_str     0x0000000000000000    0x50ec7 /home/andrea/Desktop/Star-Os/glibc-2.38/build/elf/dl-allobjs.os
 .debug_str     0x0000000000050ec7      0x394 /home/andrea/Desktop/Star-Os/glibc-2.38/build/libc_pic.a(check_fds.os)
 .debug_str     0x000000000005125b      0x1b9 /home/andrea/Desktop/Star-Os/glibc-2.38/build/libc_pic.a(errno.os)
 .debug_str     0x0000000000051414       0x73 /home/andrea/Desktop/Star-Os/glibc-2.38/build/libc_pic.a(setjmp.os)
 .debug_str     0x0000000000051487       0x63 /home/andrea/Desktop/Star-Os/glibc-2.38/build/libc_pic.a(__longjmp.os)
 .debug_str     0x00000000000514ea      0x336 /home/andrea/Desktop/Star-Os/glibc-2.38/build/libc_pic.a(lowlevellock.os)
 .debug_str     0x0000000000051820      0x2b7 /home/andrea/Desktop/Star-Os/glibc-2.38/build/libc_pic.a(scratch_buffer_set_array_size.os)
 .debug_str     0x0000000000051ad7     0x18af /home/andrea/Desktop/Star-Os/glibc-2.38/build/libc_pic.a(memchr.os)
 .debug_str     0x0000000000053386     0x18af /home/andrea/Desktop/Star-Os/glibc-2.38/build/libc_pic.a(memcmp.os)
 .debug_str     0x0000000000054c35     0x19b3 /home/andrea/Desktop/Star-Os/glibc-2.38/build/libc_pic.a(memcpy.os)
 .debug_str     0x00000000000565e8     0x19c3 /home/andrea/Desktop/Star-Os/glibc-2.38/build/libc_pic.a(memmove.os)
 .debug_str     0x0000000000057fab     0x19be /home/andrea/Desktop/Star-Os/glibc-2.38/build/libc_pic.a(mempcpy.os)
 .debug_str     0x0000000000059969     0x19a2 /home/andrea/Desktop/Star-Os/glibc-2.38/build/libc_pic.a(memset.os)
 .debug_str     0x000000000005b30b     0x18b7 /home/andrea/Desktop/Star-Os/glibc-2.38/build/libc_pic.a(stpcpy.os)
 .debug_str     0x000000000005cbc2     0x18b2 /home/andrea/Desktop/Star-Os/glibc-2.38/build/libc_pic.a(strchr.os)
 .debug_str     0x000000000005e474     0x18c4 /home/andrea/Desktop/Star-Os/glibc-2.38/build/libc_pic.a(strcmp.os)
 .debug_str     0x000000000005fd38     0x14df /home/andrea/Desktop/Star-Os/glibc-2.38/build/libc_pic.a(strcspn.os)
 .debug_str     0x0000000000061217      0x1fc /home/andrea/Desktop/Star-Os/glibc-2.38/build/libc_pic.a(strdup.os)
 .debug_str     0x0000000000061413      0x194 /home/andrea/Desktop/Star-Os/glibc-2.38/build/libc_pic.a(strerrorname_np.os)
 .debug_str     0x00000000000615a7     0x189d /home/andrea/Desktop/Star-Os/glibc-2.38/build/libc_pic.a(strlen.os)
 .debug_str     0x0000000000062e44     0x18b3 /home/andrea/Desktop/Star-Os/glibc-2.38/build/libc_pic.a(strncmp.os)
 .debug_str     0x00000000000646f7     0x18a5 /home/andrea/Desktop/Star-Os/glibc-2.38/build/libc_pic.a(strnlen.os)
 .debug_str     0x0000000000065f9c       0x73 /home/andrea/Desktop/Star-Os/glibc-2.38/build/libc_pic.a(memchr-avx2.os)
 .debug_str     0x000000000006600f       0x77 /home/andrea/Desktop/Star-Os/glibc-2.38/build/libc_pic.a(memchr-avx2-rtm.os)
 .debug_str     0x0000000000066086       0x73 /home/andrea/Desktop/Star-Os/glibc-2.38/build/libc_pic.a(memchr-evex.os)
 .debug_str     0x00000000000660f9       0x77 /home/andrea/Desktop/Star-Os/glibc-2.38/build/libc_pic.a(memchr-evex-rtm.os)
 .debug_str     0x0000000000066170       0x73 /home/andrea/Desktop/Star-Os/glibc-2.38/build/libc_pic.a(memchr-sse2.os)
 .debug_str     0x00000000000661e3       0x7f /home/andrea/Desktop/Star-Os/glibc-2.38/build/libc_pic.a(memcmp-avx2-movbe.os)
 .debug_str     0x0000000000066262       0x83 /home/andrea/Desktop/Star-Os/glibc-2.38/build/libc_pic.a(memcmp-avx2-movbe-rtm.os)
 .debug_str     0x00000000000662e5       0x7f /home/andrea/Desktop/Star-Os/glibc-2.38/build/libc_pic.a(memcmp-evex-movbe.os)
 .debug_str     0x0000000000066364       0x73 /home/andrea/Desktop/Star-Os/glibc-2.38/build/libc_pic.a(memcmp-sse2.os)
 .debug_str     0x00000000000663d7      0x1c6 /home/andrea/Desktop/Star-Os/glibc-2.38/build/libc_pic.a(memmove-avx-unaligned-erms.os)
 .debug_str     0x000000000006659d      0x1f6 /home/andrea/Desktop/Star-Os/glibc-2.38/build/libc_pic.a(memmove-avx-unaligned-erms-rtm.os)
 .debug_str     0x0000000000066793      0x13a /home/andrea/Desktop/Star-Os/glibc-2.38/build/libc_pic.a(memmove-avx512-no-vzeroupper.os)
 .debug_str     0x00000000000668cd      0x1ea /home/andrea/Desktop/Star-Os/glibc-2.38/build/libc_pic.a(memmove-avx512-unaligned-erms.os)
 .debug_str     0x0000000000066ab7       0xca /home/andrea/Desktop/Star-Os/glibc-2.38/build/libc_pic.a(memmove-erms.os)
 .debug_str     0x0000000000066b81      0x1d2 /home/andrea/Desktop/Star-Os/glibc-2.38/build/libc_pic.a(memmove-evex-unaligned-erms.os)
 .debug_str     0x0000000000066d53      0x1d2 /home/andrea/Desktop/Star-Os/glibc-2.38/build/libc_pic.a(memmove-sse2-unaligned-erms.os)
 .debug_str     0x0000000000066f25       0xd1 /home/andrea/Desktop/Star-Os/glibc-2.38/build/libc_pic.a(memmove-ssse3.os)
 .debug_str     0x0000000000066ff6      0x11b /home/andrea/Desktop/Star-Os/glibc-2.38/build/libc_pic.a(memset-avx2-unaligned-erms.os)
 .debug_str     0x0000000000067111      0x133 /home/andrea/Desktop/Star-Os/glibc-2.38/build/libc_pic.a(memset-avx2-unaligned-erms-rtm.os)
 .debug_str     0x0000000000067244       0xb5 /home/andrea/Desktop/Star-Os/glibc-2.38/build/libc_pic.a(memset-avx512-no-vzeroupper.os)
 .debug_str     0x00000000000672f9      0x127 /home/andrea/Desktop/Star-Os/glibc-2.38/build/libc_pic.a(memset-avx512-unaligned-erms.os)
 .debug_str     0x0000000000067420       0x85 /home/andrea/Desktop/Star-Os/glibc-2.38/build/libc_pic.a(memset-erms.os)
 .debug_str     0x00000000000674a5      0x11b /home/andrea/Desktop/Star-Os/glibc-2.38/build/libc_pic.a(memset-evex-unaligned-erms.os)
 .debug_str     0x00000000000675c0      0x11b /home/andrea/Desktop/Star-Os/glibc-2.38/build/libc_pic.a(memset-sse2-unaligned-erms.os)
 .debug_str     0x00000000000676db       0x73 /home/andrea/Desktop/Star-Os/glibc-2.38/build/libc_pic.a(stpcpy-avx2.os)
 .debug_str     0x000000000006774e       0x77 /home/andrea/Desktop/Star-Os/glibc-2.38/build/libc_pic.a(stpcpy-avx2-rtm.os)
 .debug_str     0x00000000000677c5       0x73 /home/andrea/Desktop/Star-Os/glibc-2.38/build/libc_pic.a(stpcpy-evex.os)
 .debug_str     0x0000000000067838       0x73 /home/andrea/Desktop/Star-Os/glibc-2.38/build/libc_pic.a(stpcpy-sse2.os)
 .debug_str     0x00000000000678ab       0x87 /home/andrea/Desktop/Star-Os/glibc-2.38/build/libc_pic.a(stpcpy-sse2-unaligned.os)
 .debug_str     0x0000000000067932       0x73 /home/andrea/Desktop/Star-Os/glibc-2.38/build/libc_pic.a(strchr-avx2.os)
 .debug_str     0x00000000000679a5       0x77 /home/andrea/Desktop/Star-Os/glibc-2.38/build/libc_pic.a(strchr-avx2-rtm.os)
 .debug_str     0x0000000000067a1c       0x73 /home/andrea/Desktop/Star-Os/glibc-2.38/build/libc_pic.a(strchr-evex.os)
 .debug_str     0x0000000000067a8f       0x73 /home/andrea/Desktop/Star-Os/glibc-2.38/build/libc_pic.a(strchr-sse2.os)
 .debug_str     0x0000000000067b02       0x81 /home/andrea/Desktop/Star-Os/glibc-2.38/build/libc_pic.a(strchr-sse2-no-bsf.os)
 .debug_str     0x0000000000067b83       0x73 /home/andrea/Desktop/Star-Os/glibc-2.38/build/libc_pic.a(strcmp-avx2.os)
 .debug_str     0x0000000000067bf6       0x77 /home/andrea/Desktop/Star-Os/glibc-2.38/build/libc_pic.a(strcmp-avx2-rtm.os)
 .debug_str     0x0000000000067c6d       0x73 /home/andrea/Desktop/Star-Os/glibc-2.38/build/libc_pic.a(strcmp-evex.os)
 .debug_str     0x0000000000067ce0       0x73 /home/andrea/Desktop/Star-Os/glibc-2.38/build/libc_pic.a(strcmp-sse2.os)
 .debug_str     0x0000000000067d53       0x87 /home/andrea/Desktop/Star-Os/glibc-2.38/build/libc_pic.a(strcmp-sse2-unaligned.os)
 .debug_str     0x0000000000067dda       0x76 /home/andrea/Desktop/Star-Os/glibc-2.38/build/libc_pic.a(strcmp-sse4_2.os)
 .debug_str     0x0000000000067e50      0x3a0 /home/andrea/Desktop/Star-Os/glibc-2.38/build/libc_pic.a(strcspn-sse4.os)
 .debug_str     0x00000000000681f0       0x73 /home/andrea/Desktop/Star-Os/glibc-2.38/build/libc_pic.a(strlen-avx2.os)
 .debug_str     0x0000000000068263       0x77 /home/andrea/Desktop/Star-Os/glibc-2.38/build/libc_pic.a(strlen-avx2-rtm.os)
 .debug_str     0x00000000000682da       0x73 /home/andrea/Desktop/Star-Os/glibc-2.38/build/libc_pic.a(strlen-evex.os)
 .debug_str     0x000000000006834d       0x73 /home/andrea/Desktop/Star-Os/glibc-2.38/build/libc_pic.a(strlen-sse2.os)
 .debug_str     0x00000000000683c0       0x74 /home/andrea/Desktop/Star-Os/glibc-2.38/build/libc_pic.a(strncmp-avx2.os)
 .debug_str     0x0000000000068434       0x78 /home/andrea/Desktop/Star-Os/glibc-2.38/build/libc_pic.a(strncmp-avx2-rtm.os)
 .debug_str     0x00000000000684ac       0x74 /home/andrea/Desktop/Star-Os/glibc-2.38/build/libc_pic.a(strncmp-evex.os)
 .debug_str     0x0000000000068520       0x74 /home/andrea/Desktop/Star-Os/glibc-2.38/build/libc_pic.a(strncmp-sse2.os)
 .debug_str     0x0000000000068594       0x77 /home/andrea/Desktop/Star-Os/glibc-2.38/build/libc_pic.a(strncmp-sse4_2.os)
 .debug_str     0x000000000006860b       0x74 /home/andrea/Desktop/Star-Os/glibc-2.38/build/libc_pic.a(strnlen-avx2.os)
 .debug_str     0x000000000006867f       0x78 /home/andrea/Desktop/Star-Os/glibc-2.38/build/libc_pic.a(strnlen-avx2-rtm.os)
 .debug_str     0x00000000000686f7       0x75 /home/andrea/Desktop/Star-Os/glibc-2.38/build/libc_pic.a(strnlen-evex.os)
 .debug_str     0x000000000006876c       0x74 /home/andrea/Desktop/Star-Os/glibc-2.38/build/libc_pic.a(strnlen-sse2.os)
 .debug_str     0x00000000000687e0      0x194 /home/andrea/Desktop/Star-Os/glibc-2.38/build/libc_pic.a(varshift.os)
 .debug_str     0x0000000000068974      0x20c /home/andrea/Desktop/Star-Os/glibc-2.38/build/libc_pic.a(strcspn-generic.os)
 .debug_str     0x0000000000068b80     0x2b36 /home/andrea/Desktop/Star-Os/glibc-2.38/build/libc_pic.a(cacheinfo.os)
 .debug_str     0x000000000006b6b6      0x24f /home/andrea/Desktop/Star-Os/glibc-2.38/build/libc_pic.a(closedir.os)
 .debug_str     0x000000000006b905      0x2c2 /home/andrea/Desktop/Star-Os/glibc-2.38/build/libc_pic.a(rewinddir.os)
 .debug_str     0x000000000006bbc7      0x345 /home/andrea/Desktop/Star-Os/glibc-2.38/build/libc_pic.a(readdir64.os)
 .debug_str     0x000000000006bf0c      0x387 /home/andrea/Desktop/Star-Os/glibc-2.38/build/libc_pic.a(fdopendir.os)
 .debug_str     0x000000000006c293      0x1e3 /home/andrea/Desktop/Star-Os/glibc-2.38/build/libc_pic.a(_exit.os)
 .debug_str     0x000000000006c476       0x87 /home/andrea/Desktop/Star-Os/glibc-2.38/build/libc_pic.a(getpid.os)
 .debug_str     0x000000000006c4fd       0x83 /home/andrea/Desktop/Star-Os/glibc-2.38/build/libc_pic.a(uname.os)
 .debug_str     0x000000000006c580      0x1a4 /home/andrea/Desktop/Star-Os/glibc-2.38/build/libc_pic.a(environ.os)
 .debug_str     0x000000000006c724      0x1f3 /home/andrea/Desktop/Star-Os/glibc-2.38/build/libc_pic.a(access.os)
 .debug_str     0x000000000006c917      0x2c4 /home/andrea/Desktop/Star-Os/glibc-2.38/build/libc_pic.a(fstat64.os)
 .debug_str     0x000000000006cbdb      0x328 /home/andrea/Desktop/Star-Os/glibc-2.38/build/libc_pic.a(fstatat64.os)
 .debug_str     0x000000000006cf03      0x203 /home/andrea/Desktop/Star-Os/glibc-2.38/build/libc_pic.a(lseek64.os)
 .debug_str     0x000000000006d106      0x2bc /home/andrea/Desktop/Star-Os/glibc-2.38/build/libc_pic.a(lstat64.os)
 .debug_str     0x000000000006d3c2      0x32d /home/andrea/Desktop/Star-Os/glibc-2.38/build/libc_pic.a(openat64.os)
 .debug_str     0x000000000006d6ef      0x2ba /home/andrea/Desktop/Star-Os/glibc-2.38/build/libc_pic.a(stat64.os)
 .debug_str     0x000000000006d9a9      0x1f2 /home/andrea/Desktop/Star-Os/glibc-2.38/build/libc_pic.a(close_nocancel.os)
 .debug_str     0x000000000006db9b      0x2df /home/andrea/Desktop/Star-Os/glibc-2.38/build/libc_pic.a(fcntl_nocancel.os)
 .debug_str     0x000000000006de7a      0x284 /home/andrea/Desktop/Star-Os/glibc-2.38/build/libc_pic.a(open64_nocancel.os)
 .debug_str     0x000000000006e0fe      0x243 /home/andrea/Desktop/Star-Os/glibc-2.38/build/libc_pic.a(pread64_nocancel.os)
 .debug_str     0x000000000006e341      0x21e /home/andrea/Desktop/Star-Os/glibc-2.38/build/libc_pic.a(read_nocancel.os)
 .debug_str     0x000000000006e55f      0x220 /home/andrea/Desktop/Star-Os/glibc-2.38/build/libc_pic.a(write_nocancel.os)
 .debug_str     0x000000000006e77f     0x1814 /home/andrea/Desktop/Star-Os/glibc-2.38/build/libc_pic.a(mmap64.os)
 .debug_str     0x000000000006ff93       0x8e /home/andrea/Desktop/Star-Os/glibc-2.38/build/libc_pic.a(mprotect.os)
 .debug_str     0x0000000000070021       0x86 /home/andrea/Desktop/Star-Os/glibc-2.38/build/libc_pic.a(munmap.os)
 .debug_str     0x00000000000700a7      0x147 /home/andrea/Desktop/Star-Os/glibc-2.38/build/libc_pic.a(single_threaded.os)
 .debug_str     0x00000000000701ee      0x715 /home/andrea/Desktop/Star-Os/glibc-2.38/build/libc_pic.a(profil.os)
 .debug_str     0x0000000000070903     0x141e /home/andrea/Desktop/Star-Os/glibc-2.38/build/libc_pic.a(prof-freq.os)
 .debug_str     0x0000000000071d21      0x90d /home/andrea/Desktop/Star-Os/glibc-2.38/build/libc_pic.a(dl-addr-obj.os)
 .debug_str     0x000000000007262e      0x413 /home/andrea/Desktop/Star-Os/glibc-2.38/build/libc_pic.a(sigaction.os)
 .debug_str     0x0000000000072a41      0x448 /home/andrea/Desktop/Star-Os/glibc-2.38/build/libc_pic.a(libc_sigaction.os)
 .debug_str     0x0000000000072e89      0x578 /home/andrea/Desktop/Star-Os/glibc-2.38/build/libc_pic.a(errname.os)
 .debug_str     0x0000000000073401     0x18b1 /home/andrea/Desktop/Star-Os/glibc-2.38/build/libc_pic.a(strchrnul.os)
 .debug_str     0x0000000000074cb2       0x76 /home/andrea/Desktop/Star-Os/glibc-2.38/build/libc_pic.a(strchrnul-avx2.os)
 .debug_str     0x0000000000074d28       0x7a /home/andrea/Desktop/Star-Os/glibc-2.38/build/libc_pic.a(strchrnul-avx2-rtm.os)
 .debug_str     0x0000000000074da2       0x76 /home/andrea/Desktop/Star-Os/glibc-2.38/build/libc_pic.a(strchrnul-evex.os)
 .debug_str     0x0000000000074e18       0x76 /home/andrea/Desktop/Star-Os/glibc-2.38/build/libc_pic.a(strchrnul-sse2.os)
 .debug_str     0x0000000000074e8e      0x293 /home/andrea/Desktop/Star-Os/glibc-2.38/build/libc_pic.a(setitimer.os)
 .debug_str     0x0000000000075121      0x218 /home/andrea/Desktop/Star-Os/glibc-2.38/build/libc_pic.a(getdents64.os)

.debug_loc
 *(.debug_loc)

.debug_macinfo
 *(.debug_macinfo)

.debug_weaknames
 *(.debug_weaknames)

.debug_funcnames
 *(.debug_funcnames)

.debug_typenames
 *(.debug_typenames)

.debug_varnames
 *(.debug_varnames)

.debug_pubtypes
 *(.debug_pubtypes)

.debug_ranges
 *(.debug_ranges)

.debug_addr
 *(.debug_addr)

.debug_line_str
                0x0000000000000000    0x11e03
 *(.debug_line_str)
 .debug_line_str
                0x0000000000000000     0xaad3 /home/andrea/Desktop/Star-Os/glibc-2.38/build/elf/dl-allobjs.os
 .debug_line_str
                0x000000000000aad3      0x157 /home/andrea/Desktop/Star-Os/glibc-2.38/build/libc_pic.a(check_fds.os)
 .debug_line_str
                0x000000000000ac2a       0x83 /home/andrea/Desktop/Star-Os/glibc-2.38/build/libc_pic.a(errno.os)
 .debug_line_str
                0x000000000000acad       0x4a /home/andrea/Desktop/Star-Os/glibc-2.38/build/libc_pic.a(setjmp.os)
 .debug_line_str
                0x000000000000acf7       0x4d /home/andrea/Desktop/Star-Os/glibc-2.38/build/libc_pic.a(__longjmp.os)
 .debug_line_str
                0x000000000000ad44       0xca /home/andrea/Desktop/Star-Os/glibc-2.38/build/libc_pic.a(lowlevellock.os)
 .debug_line_str
                0x000000000000ae0e      0x127 /home/andrea/Desktop/Star-Os/glibc-2.38/build/libc_pic.a(scratch_buffer_set_array_size.os)
 .debug_line_str
                0x000000000000af35      0x2f6 /home/andrea/Desktop/Star-Os/glibc-2.38/build/libc_pic.a(memchr.os)
 .debug_line_str
                0x000000000000b22b      0x2f8 /home/andrea/Desktop/Star-Os/glibc-2.38/build/libc_pic.a(memcmp.os)
 .debug_line_str
                0x000000000000b523      0x2f9 /home/andrea/Desktop/Star-Os/glibc-2.38/build/libc_pic.a(memcpy.os)
 .debug_line_str
                0x000000000000b81c      0x2fc /home/andrea/Desktop/Star-Os/glibc-2.38/build/libc_pic.a(memmove.os)
 .debug_line_str
                0x000000000000bb18      0x2fc /home/andrea/Desktop/Star-Os/glibc-2.38/build/libc_pic.a(mempcpy.os)
 .debug_line_str
                0x000000000000be14      0x2f8 /home/andrea/Desktop/Star-Os/glibc-2.38/build/libc_pic.a(memset.os)
 .debug_line_str
                0x000000000000c10c      0x2f8 /home/andrea/Desktop/Star-Os/glibc-2.38/build/libc_pic.a(stpcpy.os)
 .debug_line_str
                0x000000000000c404      0x2e9 /home/andrea/Desktop/Star-Os/glibc-2.38/build/libc_pic.a(strchr.os)
 .debug_line_str
                0x000000000000c6ed      0x2e9 /home/andrea/Desktop/Star-Os/glibc-2.38/build/libc_pic.a(strcmp.os)
 .debug_line_str
                0x000000000000c9d6      0x2fb /home/andrea/Desktop/Star-Os/glibc-2.38/build/libc_pic.a(strcspn.os)
 .debug_line_str
                0x000000000000ccd1       0xdd /home/andrea/Desktop/Star-Os/glibc-2.38/build/libc_pic.a(strdup.os)
 .debug_line_str
                0x000000000000cdae       0xa7 /home/andrea/Desktop/Star-Os/glibc-2.38/build/libc_pic.a(strerrorname_np.os)
 .debug_line_str
                0x000000000000ce55      0x2f6 /home/andrea/Desktop/Star-Os/glibc-2.38/build/libc_pic.a(strlen.os)
 .debug_line_str
                0x000000000000d14b      0x2ec /home/andrea/Desktop/Star-Os/glibc-2.38/build/libc_pic.a(strncmp.os)
 .debug_line_str
                0x000000000000d437      0x2f9 /home/andrea/Desktop/Star-Os/glibc-2.38/build/libc_pic.a(strnlen.os)
 .debug_line_str
                0x000000000000d730       0x59 /home/andrea/Desktop/Star-Os/glibc-2.38/build/libc_pic.a(memchr-avx2.os)
 .debug_line_str
                0x000000000000d789       0x59 /home/andrea/Desktop/Star-Os/glibc-2.38/build/libc_pic.a(memchr-avx2-rtm.os)
 .debug_line_str
                0x000000000000d7e2       0x59 /home/andrea/Desktop/Star-Os/glibc-2.38/build/libc_pic.a(memchr-evex.os)
 .debug_line_str
                0x000000000000d83b       0x59 /home/andrea/Desktop/Star-Os/glibc-2.38/build/libc_pic.a(memchr-evex-rtm.os)
 .debug_line_str
                0x000000000000d894       0x59 /home/andrea/Desktop/Star-Os/glibc-2.38/build/libc_pic.a(memchr-sse2.os)
 .debug_line_str
                0x000000000000d8ed       0x5f /home/andrea/Desktop/Star-Os/glibc-2.38/build/libc_pic.a(memcmp-avx2-movbe.os)
 .debug_line_str
                0x000000000000d94c       0x5f /home/andrea/Desktop/Star-Os/glibc-2.38/build/libc_pic.a(memcmp-avx2-movbe-rtm.os)
 .debug_line_str
                0x000000000000d9ab       0x5f /home/andrea/Desktop/Star-Os/glibc-2.38/build/libc_pic.a(memcmp-evex-movbe.os)
 .debug_line_str
                0x000000000000da0a       0x59 /home/andrea/Desktop/Star-Os/glibc-2.38/build/libc_pic.a(memcmp-sse2.os)
 .debug_line_str
                0x000000000000da63       0x68 /home/andrea/Desktop/Star-Os/glibc-2.38/build/libc_pic.a(memmove-avx-unaligned-erms.os)
 .debug_line_str
                0x000000000000dacb       0x68 /home/andrea/Desktop/Star-Os/glibc-2.38/build/libc_pic.a(memmove-avx-unaligned-erms-rtm.os)
 .debug_line_str
                0x000000000000db33       0x6a /home/andrea/Desktop/Star-Os/glibc-2.38/build/libc_pic.a(memmove-avx512-no-vzeroupper.os)
 .debug_line_str
                0x000000000000db9d       0x68 /home/andrea/Desktop/Star-Os/glibc-2.38/build/libc_pic.a(memmove-avx512-unaligned-erms.os)
 .debug_line_str
                0x000000000000dc05       0x5a /home/andrea/Desktop/Star-Os/glibc-2.38/build/libc_pic.a(memmove-erms.os)
 .debug_line_str
                0x000000000000dc5f       0x68 /home/andrea/Desktop/Star-Os/glibc-2.38/build/libc_pic.a(memmove-evex-unaligned-erms.os)
 .debug_line_str
                0x000000000000dcc7       0x68 /home/andrea/Desktop/Star-Os/glibc-2.38/build/libc_pic.a(memmove-sse2-unaligned-erms.os)
 .debug_line_str
                0x000000000000dd2f       0x5b /home/andrea/Desktop/Star-Os/glibc-2.38/build/libc_pic.a(memmove-ssse3.os)
 .debug_line_str
                0x000000000000dd8a       0x67 /home/andrea/Desktop/Star-Os/glibc-2.38/build/libc_pic.a(memset-avx2-unaligned-erms.os)
 .debug_line_str
                0x000000000000ddf1       0x67 /home/andrea/Desktop/Star-Os/glibc-2.38/build/libc_pic.a(memset-avx2-unaligned-erms-rtm.os)
 .debug_line_str
                0x000000000000de58       0x69 /home/andrea/Desktop/Star-Os/glibc-2.38/build/libc_pic.a(memset-avx512-no-vzeroupper.os)
 .debug_line_str
                0x000000000000dec1       0x67 /home/andrea/Desktop/Star-Os/glibc-2.38/build/libc_pic.a(memset-avx512-unaligned-erms.os)
 .debug_line_str
                0x000000000000df28       0x59 /home/andrea/Desktop/Star-Os/glibc-2.38/build/libc_pic.a(memset-erms.os)
 .debug_line_str
                0x000000000000df81       0x67 /home/andrea/Desktop/Star-Os/glibc-2.38/build/libc_pic.a(memset-evex-unaligned-erms.os)
 .debug_line_str
                0x000000000000dfe8       0x67 /home/andrea/Desktop/Star-Os/glibc-2.38/build/libc_pic.a(memset-sse2-unaligned-erms.os)
 .debug_line_str
                0x000000000000e04f       0x59 /home/andrea/Desktop/Star-Os/glibc-2.38/build/libc_pic.a(stpcpy-avx2.os)
 .debug_line_str
                0x000000000000e0a8       0x59 /home/andrea/Desktop/Star-Os/glibc-2.38/build/libc_pic.a(stpcpy-avx2-rtm.os)
 .debug_line_str
                0x000000000000e101       0x59 /home/andrea/Desktop/Star-Os/glibc-2.38/build/libc_pic.a(stpcpy-evex.os)
 .debug_line_str
                0x000000000000e15a       0x59 /home/andrea/Desktop/Star-Os/glibc-2.38/build/libc_pic.a(stpcpy-sse2.os)
 .debug_line_str
                0x000000000000e1b3       0x63 /home/andrea/Desktop/Star-Os/glibc-2.38/build/libc_pic.a(stpcpy-sse2-unaligned.os)
 .debug_line_str
                0x000000000000e216       0x59 /home/andrea/Desktop/Star-Os/glibc-2.38/build/libc_pic.a(strchr-avx2.os)
 .debug_line_str
                0x000000000000e26f       0x59 /home/andrea/Desktop/Star-Os/glibc-2.38/build/libc_pic.a(strchr-avx2-rtm.os)
 .debug_line_str
                0x000000000000e2c8       0x59 /home/andrea/Desktop/Star-Os/glibc-2.38/build/libc_pic.a(strchr-evex.os)
 .debug_line_str
                0x000000000000e321       0x59 /home/andrea/Desktop/Star-Os/glibc-2.38/build/libc_pic.a(strchr-sse2.os)
 .debug_line_str
                0x000000000000e37a       0x60 /home/andrea/Desktop/Star-Os/glibc-2.38/build/libc_pic.a(strchr-sse2-no-bsf.os)
 .debug_line_str
                0x000000000000e3da       0x59 /home/andrea/Desktop/Star-Os/glibc-2.38/build/libc_pic.a(strcmp-avx2.os)
 .debug_line_str
                0x000000000000e433       0x59 /home/andrea/Desktop/Star-Os/glibc-2.38/build/libc_pic.a(strcmp-avx2-rtm.os)
 .debug_line_str
                0x000000000000e48c       0x59 /home/andrea/Desktop/Star-Os/glibc-2.38/build/libc_pic.a(strcmp-evex.os)
 .debug_line_str
                0x000000000000e4e5       0x59 /home/andrea/Desktop/Star-Os/glibc-2.38/build/libc_pic.a(strcmp-sse2.os)
 .debug_line_str
                0x000000000000e53e       0x63 /home/andrea/Desktop/Star-Os/glibc-2.38/build/libc_pic.a(strcmp-sse2-unaligned.os)
 .debug_line_str
                0x000000000000e5a1       0x5b /home/andrea/Desktop/Star-Os/glibc-2.38/build/libc_pic.a(strcmp-sse4_2.os)
 .debug_line_str
                0x000000000000e5fc      0x164 /home/andrea/Desktop/Star-Os/glibc-2.38/build/libc_pic.a(strcspn-sse4.os)
 .debug_line_str
                0x000000000000e760       0x59 /home/andrea/Desktop/Star-Os/glibc-2.38/build/libc_pic.a(strlen-avx2.os)
 .debug_line_str
                0x000000000000e7b9       0x59 /home/andrea/Desktop/Star-Os/glibc-2.38/build/libc_pic.a(strlen-avx2-rtm.os)
 .debug_line_str
                0x000000000000e812       0x59 /home/andrea/Desktop/Star-Os/glibc-2.38/build/libc_pic.a(strlen-evex.os)
 .debug_line_str
                0x000000000000e86b       0x59 /home/andrea/Desktop/Star-Os/glibc-2.38/build/libc_pic.a(strlen-sse2.os)
 .debug_line_str
                0x000000000000e8c4       0x59 /home/andrea/Desktop/Star-Os/glibc-2.38/build/libc_pic.a(strncmp-avx2.os)
 .debug_line_str
                0x000000000000e91d       0x59 /home/andrea/Desktop/Star-Os/glibc-2.38/build/libc_pic.a(strncmp-avx2-rtm.os)
 .debug_line_str
                0x000000000000e976       0x59 /home/andrea/Desktop/Star-Os/glibc-2.38/build/libc_pic.a(strncmp-evex.os)
 .debug_line_str
                0x000000000000e9cf       0x59 /home/andrea/Desktop/Star-Os/glibc-2.38/build/libc_pic.a(strncmp-sse2.os)
 .debug_line_str
                0x000000000000ea28       0x5b /home/andrea/Desktop/Star-Os/glibc-2.38/build/libc_pic.a(strncmp-sse4_2.os)
 .debug_line_str
                0x000000000000ea83       0x59 /home/andrea/Desktop/Star-Os/glibc-2.38/build/libc_pic.a(strnlen-avx2.os)
 .debug_line_str
                0x000000000000eadc       0x59 /home/andrea/Desktop/Star-Os/glibc-2.38/build/libc_pic.a(strnlen-avx2-rtm.os)
 .debug_line_str
                0x000000000000eb35       0x5a /home/andrea/Desktop/Star-Os/glibc-2.38/build/libc_pic.a(strnlen-evex.os)
 .debug_line_str
                0x000000000000eb8f       0x59 /home/andrea/Desktop/Star-Os/glibc-2.38/build/libc_pic.a(strnlen-sse2.os)
 .debug_line_str
                0x000000000000ebe8       0xe3 /home/andrea/Desktop/Star-Os/glibc-2.38/build/libc_pic.a(varshift.os)
 .debug_line_str
                0x000000000000eccb      0x127 /home/andrea/Desktop/Star-Os/glibc-2.38/build/libc_pic.a(strcspn-generic.os)
 .debug_line_str
                0x000000000000edf2      0x2e0 /home/andrea/Desktop/Star-Os/glibc-2.38/build/libc_pic.a(cacheinfo.os)
 .debug_line_str
                0x000000000000f0d2      0x181 /home/andrea/Desktop/Star-Os/glibc-2.38/build/libc_pic.a(closedir.os)
 .debug_line_str
                0x000000000000f253      0x174 /home/andrea/Desktop/Star-Os/glibc-2.38/build/libc_pic.a(rewinddir.os)
 .debug_line_str
                0x000000000000f3c7      0x1a5 /home/andrea/Desktop/Star-Os/glibc-2.38/build/libc_pic.a(readdir64.os)
 .debug_line_str
                0x000000000000f56c      0x1e7 /home/andrea/Desktop/Star-Os/glibc-2.38/build/libc_pic.a(fdopendir.os)
 .debug_line_str
                0x000000000000f753       0xbd /home/andrea/Desktop/Star-Os/glibc-2.38/build/libc_pic.a(_exit.os)
 .debug_line_str
                0x000000000000f810       0x51 /home/andrea/Desktop/Star-Os/glibc-2.38/build/libc_pic.a(getpid.os)
 .debug_line_str
                0x000000000000f861       0x51 /home/andrea/Desktop/Star-Os/glibc-2.38/build/libc_pic.a(uname.os)
 .debug_line_str
                0x000000000000f8b2       0x8c /home/andrea/Desktop/Star-Os/glibc-2.38/build/libc_pic.a(environ.os)
 .debug_line_str
                0x000000000000f93e       0xba /home/andrea/Desktop/Star-Os/glibc-2.38/build/libc_pic.a(access.os)
 .debug_line_str
                0x000000000000f9f8      0x140 /home/andrea/Desktop/Star-Os/glibc-2.38/build/libc_pic.a(fstat64.os)
 .debug_line_str
                0x000000000000fb38      0x130 /home/andrea/Desktop/Star-Os/glibc-2.38/build/libc_pic.a(fstatat64.os)
 .debug_line_str
                0x000000000000fc68       0xe5 /home/andrea/Desktop/Star-Os/glibc-2.38/build/libc_pic.a(lseek64.os)
 .debug_line_str
                0x000000000000fd4d      0x12d /home/andrea/Desktop/Star-Os/glibc-2.38/build/libc_pic.a(lstat64.os)
 .debug_line_str
                0x000000000000fe7a      0x152 /home/andrea/Desktop/Star-Os/glibc-2.38/build/libc_pic.a(openat64.os)
 .debug_line_str
                0x000000000000ffcc      0x12a /home/andrea/Desktop/Star-Os/glibc-2.38/build/libc_pic.a(stat64.os)
 .debug_line_str
                0x00000000000100f6       0xd2 /home/andrea/Desktop/Star-Os/glibc-2.38/build/libc_pic.a(close_nocancel.os)
 .debug_line_str
                0x00000000000101c8      0x153 /home/andrea/Desktop/Star-Os/glibc-2.38/build/libc_pic.a(fcntl_nocancel.os)
 .debug_line_str
                0x000000000001031b      0x112 /home/andrea/Desktop/Star-Os/glibc-2.38/build/libc_pic.a(open64_nocancel.os)
 .debug_line_str
                0x000000000001042d      0x132 /home/andrea/Desktop/Star-Os/glibc-2.38/build/libc_pic.a(pread64_nocancel.os)
 .debug_line_str
                0x000000000001055f      0x129 /home/andrea/Desktop/Star-Os/glibc-2.38/build/libc_pic.a(read_nocancel.os)
 .debug_line_str
                0x0000000000010688      0x12c /home/andrea/Desktop/Star-Os/glibc-2.38/build/libc_pic.a(write_nocancel.os)
 .debug_line_str
                0x00000000000107b4      0x2bf /home/andrea/Desktop/Star-Os/glibc-2.38/build/libc_pic.a(mmap64.os)
 .debug_line_str
                0x0000000000010a73       0x50 /home/andrea/Desktop/Star-Os/glibc-2.38/build/libc_pic.a(mprotect.os)
 .debug_line_str
                0x0000000000010ac3       0x50 /home/andrea/Desktop/Star-Os/glibc-2.38/build/libc_pic.a(munmap.os)
 .debug_line_str
                0x0000000000010b13       0xcf /home/andrea/Desktop/Star-Os/glibc-2.38/build/libc_pic.a(single_threaded.os)
 .debug_line_str
                0x0000000000010be2      0x2d0 /home/andrea/Desktop/Star-Os/glibc-2.38/build/libc_pic.a(profil.os)
 .debug_line_str
                0x0000000000010eb2      0x2ae /home/andrea/Desktop/Star-Os/glibc-2.38/build/libc_pic.a(prof-freq.os)
 .debug_line_str
                0x0000000000011160      0x19e /home/andrea/Desktop/Star-Os/glibc-2.38/build/libc_pic.a(dl-addr-obj.os)
 .debug_line_str
                0x00000000000112fe      0x19f /home/andrea/Desktop/Star-Os/glibc-2.38/build/libc_pic.a(sigaction.os)
 .debug_line_str
                0x000000000001149d      0x223 /home/andrea/Desktop/Star-Os/glibc-2.38/build/libc_pic.a(libc_sigaction.os)
 .debug_line_str
                0x00000000000116c0       0xa1 /home/andrea/Desktop/Star-Os/glibc-2.38/build/libc_pic.a(errname.os)
 .debug_line_str
                0x0000000000011761      0x2ff /home/andrea/Desktop/Star-Os/glibc-2.38/build/libc_pic.a(strchrnul.os)
 .debug_line_str
                0x0000000000011a60       0x59 /home/andrea/Desktop/Star-Os/glibc-2.38/build/libc_pic.a(strchrnul-avx2.os)
 .debug_line_str
                0x0000000000011ab9       0x59 /home/andrea/Desktop/Star-Os/glibc-2.38/build/libc_pic.a(strchrnul-avx2-rtm.os)
 .debug_line_str
                0x0000000000011b12       0x59 /home/andrea/Desktop/Star-Os/glibc-2.38/build/libc_pic.a(strchrnul-evex.os)
 .debug_line_str
                0x0000000000011b6b       0x59 /home/andrea/Desktop/Star-Os/glibc-2.38/build/libc_pic.a(strchrnul-sse2.os)
 .debug_line_str
                0x0000000000011bc4      0x114 /home/andrea/Desktop/Star-Os/glibc-2.38/build/libc_pic.a(setitimer.os)
 .debug_line_str
                0x0000000000011cd8      0x12b /home/andrea/Desktop/Star-Os/glibc-2.38/build/libc_pic.a(getdents64.os)

.debug_loclists
                0x0000000000000000    0x2180e
 *(.debug_loclists)
 .debug_loclists
                0x0000000000000000    0x1fb33 /home/andrea/Desktop/Star-Os/glibc-2.38/build/elf/dl-allobjs.os
 .debug_loclists
                0x000000000001fb33       0xa2 /home/andrea/Desktop/Star-Os/glibc-2.38/build/libc_pic.a(check_fds.os)
 .debug_loclists
                0x000000000001fbd5      0x18c /home/andrea/Desktop/Star-Os/glibc-2.38/build/libc_pic.a(lowlevellock.os)
 .debug_loclists
                0x000000000001fd61       0xe8 /home/andrea/Desktop/Star-Os/glibc-2.38/build/libc_pic.a(scratch_buffer_set_array_size.os)
 .debug_loclists
                0x000000000001fe49       0x62 /home/andrea/Desktop/Star-Os/glibc-2.38/build/libc_pic.a(strdup.os)
 .debug_loclists
                0x000000000001feab       0x1e /home/andrea/Desktop/Star-Os/glibc-2.38/build/libc_pic.a(strerrorname_np.os)
 .debug_loclists
                0x000000000001fec9      0x4cd /home/andrea/Desktop/Star-Os/glibc-2.38/build/libc_pic.a(strcspn-sse4.os)
 .debug_loclists
                0x0000000000020396      0x14c /home/andrea/Desktop/Star-Os/glibc-2.38/build/libc_pic.a(strcspn-generic.os)
 .debug_loclists
                0x00000000000204e2       0x70 /home/andrea/Desktop/Star-Os/glibc-2.38/build/libc_pic.a(cacheinfo.os)
 .debug_loclists
                0x0000000000020552       0x34 /home/andrea/Desktop/Star-Os/glibc-2.38/build/libc_pic.a(closedir.os)
 .debug_loclists
                0x0000000000020586       0xcd /home/andrea/Desktop/Star-Os/glibc-2.38/build/libc_pic.a(rewinddir.os)
 .debug_loclists
                0x0000000000020653      0x10b /home/andrea/Desktop/Star-Os/glibc-2.38/build/libc_pic.a(readdir64.os)
 .debug_loclists
                0x000000000002075e       0x44 /home/andrea/Desktop/Star-Os/glibc-2.38/build/libc_pic.a(fdopendir.os)
 .debug_loclists
                0x00000000000207a2       0x2b /home/andrea/Desktop/Star-Os/glibc-2.38/build/libc_pic.a(_exit.os)
 .debug_loclists
                0x00000000000207cd       0x2c /home/andrea/Desktop/Star-Os/glibc-2.38/build/libc_pic.a(access.os)
 .debug_loclists
                0x00000000000207f9       0x45 /home/andrea/Desktop/Star-Os/glibc-2.38/build/libc_pic.a(fstat64.os)
 .debug_loclists
                0x000000000002083e       0xa4 /home/andrea/Desktop/Star-Os/glibc-2.38/build/libc_pic.a(fstatat64.os)
 .debug_loclists
                0x00000000000208e2       0x50 /home/andrea/Desktop/Star-Os/glibc-2.38/build/libc_pic.a(lseek64.os)
 .debug_loclists
                0x0000000000020932       0x3e /home/andrea/Desktop/Star-Os/glibc-2.38/build/libc_pic.a(lstat64.os)
 .debug_loclists
                0x0000000000020970      0x264 /home/andrea/Desktop/Star-Os/glibc-2.38/build/libc_pic.a(openat64.os)
 .debug_loclists
                0x0000000000020bd4       0x3e /home/andrea/Desktop/Star-Os/glibc-2.38/build/libc_pic.a(stat64.os)
 .debug_loclists
                0x0000000000020c12       0x24 /home/andrea/Desktop/Star-Os/glibc-2.38/build/libc_pic.a(close_nocancel.os)
 .debug_loclists
                0x0000000000020c36      0x248 /home/andrea/Desktop/Star-Os/glibc-2.38/build/libc_pic.a(fcntl_nocancel.os)
 .debug_loclists
                0x0000000000020e7e       0xe5 /home/andrea/Desktop/Star-Os/glibc-2.38/build/libc_pic.a(open64_nocancel.os)
 .debug_loclists
                0x0000000000020f63       0x6e /home/andrea/Desktop/Star-Os/glibc-2.38/build/libc_pic.a(pread64_nocancel.os)
 .debug_loclists
                0x0000000000020fd1       0x50 /home/andrea/Desktop/Star-Os/glibc-2.38/build/libc_pic.a(read_nocancel.os)
 .debug_loclists
                0x0000000000021021       0x50 /home/andrea/Desktop/Star-Os/glibc-2.38/build/libc_pic.a(write_nocancel.os)
 .debug_loclists
                0x0000000000021071      0x1e6 /home/andrea/Desktop/Star-Os/glibc-2.38/build/libc_pic.a(mmap64.os)
 .debug_loclists
                0x0000000000021257      0x1c7 /home/andrea/Desktop/Star-Os/glibc-2.38/build/libc_pic.a(profil.os)
 .debug_loclists
                0x000000000002141e      0x16b /home/andrea/Desktop/Star-Os/glibc-2.38/build/libc_pic.a(dl-addr-obj.os)
 .debug_loclists
                0x0000000000021589       0x5f /home/andrea/Desktop/Star-Os/glibc-2.38/build/libc_pic.a(sigaction.os)
 .debug_loclists
                0x00000000000215e8       0xd7 /home/andrea/Desktop/Star-Os/glibc-2.38/build/libc_pic.a(libc_sigaction.os)
 .debug_loclists
                0x00000000000216bf       0x14 /home/andrea/Desktop/Star-Os/glibc-2.38/build/libc_pic.a(errname.os)
 .debug_loclists
                0x00000000000216d3       0x50 /home/andrea/Desktop/Star-Os/glibc-2.38/build/libc_pic.a(setitimer.os)
 .debug_loclists
                0x0000000000021723       0xeb /home/andrea/Desktop/Star-Os/glibc-2.38/build/libc_pic.a(getdents64.os)

.debug_macro
 *(.debug_macro)

.debug_names
 *(.debug_names)

.debug_rnglists
                0x0000000000000000     0x437b
 *(.debug_rnglists)
 .debug_rnglists
                0x0000000000000000     0x3eb6 /home/andrea/Desktop/Star-Os/glibc-2.38/build/elf/dl-allobjs.os
 .debug_rnglists
                0x0000000000003eb6       0x2f /home/andrea/Desktop/Star-Os/glibc-2.38/build/libc_pic.a(lowlevellock.os)
 .debug_rnglists
                0x0000000000003ee5       0x20 /home/andrea/Desktop/Star-Os/glibc-2.38/build/libc_pic.a(scratch_buffer_set_array_size.os)
 .debug_rnglists
                0x0000000000003f05       0x16 /home/andrea/Desktop/Star-Os/glibc-2.38/build/libc_pic.a(memchr.os)
 .debug_rnglists
                0x0000000000003f1b       0x13 /home/andrea/Desktop/Star-Os/glibc-2.38/build/libc_pic.a(memcmp.os)
 .debug_rnglists
                0x0000000000003f2e       0x16 /home/andrea/Desktop/Star-Os/glibc-2.38/build/libc_pic.a(memcpy.os)
 .debug_rnglists
                0x0000000000003f44       0x16 /home/andrea/Desktop/Star-Os/glibc-2.38/build/libc_pic.a(memmove.os)
 .debug_rnglists
                0x0000000000003f5a       0x16 /home/andrea/Desktop/Star-Os/glibc-2.38/build/libc_pic.a(mempcpy.os)
 .debug_rnglists
                0x0000000000003f70       0x14 /home/andrea/Desktop/Star-Os/glibc-2.38/build/libc_pic.a(memset.os)
 .debug_rnglists
                0x0000000000003f84       0x13 /home/andrea/Desktop/Star-Os/glibc-2.38/build/libc_pic.a(stpcpy.os)
 .debug_rnglists
                0x0000000000003f97       0x16 /home/andrea/Desktop/Star-Os/glibc-2.38/build/libc_pic.a(strchr.os)
 .debug_rnglists
                0x0000000000003fad       0x17 /home/andrea/Desktop/Star-Os/glibc-2.38/build/libc_pic.a(strcmp.os)
 .debug_rnglists
                0x0000000000003fc4       0x14 /home/andrea/Desktop/Star-Os/glibc-2.38/build/libc_pic.a(strlen.os)
 .debug_rnglists
                0x0000000000003fd8       0x14 /home/andrea/Desktop/Star-Os/glibc-2.38/build/libc_pic.a(strncmp.os)
 .debug_rnglists
                0x0000000000003fec       0x14 /home/andrea/Desktop/Star-Os/glibc-2.38/build/libc_pic.a(strnlen.os)
 .debug_rnglists
                0x0000000000004000      0x12c /home/andrea/Desktop/Star-Os/glibc-2.38/build/libc_pic.a(strcspn-sse4.os)
 .debug_rnglists
                0x000000000000412c       0x29 /home/andrea/Desktop/Star-Os/glibc-2.38/build/libc_pic.a(rewinddir.os)
 .debug_rnglists
                0x0000000000004155       0x40 /home/andrea/Desktop/Star-Os/glibc-2.38/build/libc_pic.a(readdir64.os)
 .debug_rnglists
                0x0000000000004195       0x1a /home/andrea/Desktop/Star-Os/glibc-2.38/build/libc_pic.a(_exit.os)
 .debug_rnglists
                0x00000000000041af       0x13 /home/andrea/Desktop/Star-Os/glibc-2.38/build/libc_pic.a(access.os)
 .debug_rnglists
                0x00000000000041c2       0x13 /home/andrea/Desktop/Star-Os/glibc-2.38/build/libc_pic.a(lseek64.os)
 .debug_rnglists
                0x00000000000041d5       0x52 /home/andrea/Desktop/Star-Os/glibc-2.38/build/libc_pic.a(openat64.os)
 .debug_rnglists
                0x0000000000004227       0x13 /home/andrea/Desktop/Star-Os/glibc-2.38/build/libc_pic.a(close_nocancel.os)
 .debug_rnglists
                0x000000000000423a       0x3a /home/andrea/Desktop/Star-Os/glibc-2.38/build/libc_pic.a(fcntl_nocancel.os)
 .debug_rnglists
                0x0000000000004274       0x13 /home/andrea/Desktop/Star-Os/glibc-2.38/build/libc_pic.a(open64_nocancel.os)
 .debug_rnglists
                0x0000000000004287       0x1d /home/andrea/Desktop/Star-Os/glibc-2.38/build/libc_pic.a(pread64_nocancel.os)
 .debug_rnglists
                0x00000000000042a4       0x13 /home/andrea/Desktop/Star-Os/glibc-2.38/build/libc_pic.a(read_nocancel.os)
 .debug_rnglists
                0x00000000000042b7       0x13 /home/andrea/Desktop/Star-Os/glibc-2.38/build/libc_pic.a(write_nocancel.os)
 .debug_rnglists
                0x00000000000042ca       0x20 /home/andrea/Desktop/Star-Os/glibc-2.38/build/libc_pic.a(mmap64.os)
 .debug_rnglists
                0x00000000000042ea       0x3a /home/andrea/Desktop/Star-Os/glibc-2.38/build/libc_pic.a(libc_sigaction.os)
 .debug_rnglists
                0x0000000000004324       0x13 /home/andrea/Desktop/Star-Os/glibc-2.38/build/libc_pic.a(errname.os)
 .debug_rnglists
                0x0000000000004337       0x14 /home/andrea/Desktop/Star-Os/glibc-2.38/build/libc_pic.a(strchrnul.os)
 .debug_rnglists
                0x000000000000434b       0x13 /home/andrea/Desktop/Star-Os/glibc-2.38/build/libc_pic.a(setitimer.os)
 .debug_rnglists
                0x000000000000435e       0x1d /home/andrea/Desktop/Star-Os/glibc-2.38/build/libc_pic.a(getdents64.os)

.debug_str_offsets
 *(.debug_str_offsets)

.debug_sup
 *(.debug_sup)

.gnu.attributes
 *(.gnu.attributes)
OUTPUT(/home/andrea/Desktop/Star-Os/glibc-2.38/build/elf/librtld.map.o elf64-x86-64)
